
code.elf:     file format elf32-avr

Sections:
Idx Name          Size      VMA       LMA       File off  Algn
  0 .text         000029f8  00000000  00000000  00000094  2**1
                  CONTENTS, ALLOC, LOAD, READONLY, CODE
  1 .data         00000170  00800060  000029f8  00002a8c  2**0
                  CONTENTS, ALLOC, LOAD, DATA
  2 .bss          00000483  008001d0  008001d0  00002bfc  2**0
                  ALLOC
  3 .debug_aranges 00000160  00000000  00000000  00002bfc  2**0
                  CONTENTS, READONLY, DEBUGGING
  4 .debug_pubnames 000001b6  00000000  00000000  00002d5c  2**0
                  CONTENTS, READONLY, DEBUGGING
  5 .debug_info   00001f0d  00000000  00000000  00002f12  2**0
                  CONTENTS, READONLY, DEBUGGING
  6 .debug_abbrev 000010d2  00000000  00000000  00004e1f  2**0
                  CONTENTS, READONLY, DEBUGGING
  7 .debug_line   00001030  00000000  00000000  00005ef1  2**0
                  CONTENTS, READONLY, DEBUGGING
  8 .debug_frame  00000180  00000000  00000000  00006f24  2**2
                  CONTENTS, READONLY, DEBUGGING
  9 .debug_str    000002e6  00000000  00000000  000070a4  2**0
                  CONTENTS, READONLY, DEBUGGING
 10 .debug_loc    000008f6  00000000  00000000  0000738a  2**0
                  CONTENTS, READONLY, DEBUGGING
 11 .debug_ranges 00000050  00000000  00000000  00007c80  2**0
                  CONTENTS, READONLY, DEBUGGING

Disassembly of section .text:

00000000 <__vectors>:
       0:	29 c0       	rjmp	.+82     	; 0x54 <__ctors_end>
       2:	00 00       	nop
       4:	44 c0       	rjmp	.+136    	; 0x8e <__bad_interrupt>
       6:	00 00       	nop
       8:	42 c0       	rjmp	.+132    	; 0x8e <__bad_interrupt>
       a:	00 00       	nop
       c:	40 c0       	rjmp	.+128    	; 0x8e <__bad_interrupt>
       e:	00 00       	nop
      10:	ec c5       	rjmp	.+3032   	; 0xbea <__vector_4>
      12:	00 00       	nop
      14:	11 c6       	rjmp	.+3106   	; 0xc38 <__vector_5>
      16:	00 00       	nop
      18:	3a c0       	rjmp	.+116    	; 0x8e <__bad_interrupt>
      1a:	00 00       	nop
      1c:	0c 94 a8 0b 	jmp	0x1750	; 0x1750 <__vector_7>
      20:	36 c0       	rjmp	.+108    	; 0x8e <__bad_interrupt>
      22:	00 00       	nop
      24:	34 c0       	rjmp	.+104    	; 0x8e <__bad_interrupt>
      26:	00 00       	nop
      28:	55 c6       	rjmp	.+3242   	; 0xcd4 <__vector_10>
      2a:	00 00       	nop
      2c:	2c c6       	rjmp	.+3160   	; 0xc86 <__vector_11>
      2e:	00 00       	nop
      30:	2e c0       	rjmp	.+92     	; 0x8e <__bad_interrupt>
      32:	00 00       	nop
      34:	2c c0       	rjmp	.+88     	; 0x8e <__bad_interrupt>
      36:	00 00       	nop
      38:	2a c0       	rjmp	.+84     	; 0x8e <__bad_interrupt>
      3a:	00 00       	nop
      3c:	28 c0       	rjmp	.+80     	; 0x8e <__bad_interrupt>
      3e:	00 00       	nop
      40:	0c 94 24 08 	jmp	0x1048	; 0x1048 <__vector_16>
      44:	24 c0       	rjmp	.+72     	; 0x8e <__bad_interrupt>
      46:	00 00       	nop
      48:	22 c0       	rjmp	.+68     	; 0x8e <__bad_interrupt>
      4a:	00 00       	nop
      4c:	20 c0       	rjmp	.+64     	; 0x8e <__bad_interrupt>
      4e:	00 00       	nop
      50:	1e c0       	rjmp	.+60     	; 0x8e <__bad_interrupt>
	...

00000054 <__ctors_end>:
      54:	11 24       	eor	r1, r1
      56:	1f be       	out	0x3f, r1	; 63
      58:	cf e5       	ldi	r28, 0x5F	; 95
      5a:	d8 e0       	ldi	r29, 0x08	; 8
      5c:	de bf       	out	0x3e, r29	; 62
      5e:	cd bf       	out	0x3d, r28	; 61

00000060 <__do_copy_data>:
      60:	11 e0       	ldi	r17, 0x01	; 1
      62:	a0 e6       	ldi	r26, 0x60	; 96
      64:	b0 e0       	ldi	r27, 0x00	; 0
      66:	e8 ef       	ldi	r30, 0xF8	; 248
      68:	f9 e2       	ldi	r31, 0x29	; 41
      6a:	02 c0       	rjmp	.+4      	; 0x70 <.do_copy_data_start>

0000006c <.do_copy_data_loop>:
      6c:	05 90       	lpm	r0, Z+
      6e:	0d 92       	st	X+, r0

00000070 <.do_copy_data_start>:
      70:	a0 3d       	cpi	r26, 0xD0	; 208
      72:	b1 07       	cpc	r27, r17
      74:	d9 f7       	brne	.-10     	; 0x6c <.do_copy_data_loop>

00000076 <__do_clear_bss>:
      76:	16 e0       	ldi	r17, 0x06	; 6
      78:	a0 ed       	ldi	r26, 0xD0	; 208
      7a:	b1 e0       	ldi	r27, 0x01	; 1
      7c:	01 c0       	rjmp	.+2      	; 0x80 <.do_clear_bss_start>

0000007e <.do_clear_bss_loop>:
      7e:	1d 92       	st	X+, r1

00000080 <.do_clear_bss_start>:
      80:	a3 35       	cpi	r26, 0x53	; 83
      82:	b1 07       	cpc	r27, r17
      84:	e1 f7       	brne	.-8      	; 0x7e <.do_clear_bss_loop>
      86:	0e 94 a4 13 	call	0x2748	; 0x2748 <main>
      8a:	0c 94 fa 14 	jmp	0x29f4	; 0x29f4 <_exit>

0000008e <__bad_interrupt>:
      8e:	b8 cf       	rjmp	.-144    	; 0x0 <__vectors>

00000090 <__fixunssfsi>:
      90:	ef 92       	push	r14
      92:	ff 92       	push	r15
      94:	0f 93       	push	r16
      96:	1f 93       	push	r17
      98:	7b 01       	movw	r14, r22
      9a:	8c 01       	movw	r16, r24
      9c:	20 e0       	ldi	r18, 0x00	; 0
      9e:	30 e0       	ldi	r19, 0x00	; 0
      a0:	40 e0       	ldi	r20, 0x00	; 0
      a2:	5f e4       	ldi	r21, 0x4F	; 79
      a4:	b6 d2       	rcall	.+1388   	; 0x612 <__gesf2>
      a6:	88 23       	and	r24, r24
      a8:	7c f0       	brlt	.+30     	; 0xc8 <__fixunssfsi+0x38>
      aa:	c8 01       	movw	r24, r16
      ac:	b7 01       	movw	r22, r14
      ae:	20 e0       	ldi	r18, 0x00	; 0
      b0:	30 e0       	ldi	r19, 0x00	; 0
      b2:	40 e0       	ldi	r20, 0x00	; 0
      b4:	5f e4       	ldi	r21, 0x4F	; 79
      b6:	60 d1       	rcall	.+704    	; 0x378 <__subsf3>
      b8:	d9 d2       	rcall	.+1458   	; 0x66c <__fixsfsi>
      ba:	9b 01       	movw	r18, r22
      bc:	ac 01       	movw	r20, r24
      be:	20 50       	subi	r18, 0x00	; 0
      c0:	30 40       	sbci	r19, 0x00	; 0
      c2:	40 40       	sbci	r20, 0x00	; 0
      c4:	50 48       	sbci	r21, 0x80	; 128
      c6:	05 c0       	rjmp	.+10     	; 0xd2 <__fixunssfsi+0x42>
      c8:	c8 01       	movw	r24, r16
      ca:	b7 01       	movw	r22, r14
      cc:	cf d2       	rcall	.+1438   	; 0x66c <__fixsfsi>
      ce:	9b 01       	movw	r18, r22
      d0:	ac 01       	movw	r20, r24
      d2:	b9 01       	movw	r22, r18
      d4:	ca 01       	movw	r24, r20
      d6:	1f 91       	pop	r17
      d8:	0f 91       	pop	r16
      da:	ff 90       	pop	r15
      dc:	ef 90       	pop	r14
      de:	08 95       	ret

000000e0 <_fpadd_parts>:
      e0:	a0 e0       	ldi	r26, 0x00	; 0
      e2:	b0 e0       	ldi	r27, 0x00	; 0
      e4:	e6 e7       	ldi	r30, 0x76	; 118
      e6:	f0 e0       	ldi	r31, 0x00	; 0
      e8:	0c 94 32 14 	jmp	0x2864	; 0x2864 <__prologue_saves__>
      ec:	dc 01       	movw	r26, r24
      ee:	2b 01       	movw	r4, r22
      f0:	fa 01       	movw	r30, r20
      f2:	9c 91       	ld	r25, X
      f4:	92 30       	cpi	r25, 0x02	; 2
      f6:	08 f4       	brcc	.+2      	; 0xfa <_fpadd_parts+0x1a>
      f8:	39 c1       	rjmp	.+626    	; 0x36c <_fpadd_parts+0x28c>
      fa:	eb 01       	movw	r28, r22
      fc:	88 81       	ld	r24, Y
      fe:	82 30       	cpi	r24, 0x02	; 2
     100:	08 f4       	brcc	.+2      	; 0x104 <_fpadd_parts+0x24>
     102:	33 c1       	rjmp	.+614    	; 0x36a <_fpadd_parts+0x28a>
     104:	94 30       	cpi	r25, 0x04	; 4
     106:	69 f4       	brne	.+26     	; 0x122 <_fpadd_parts+0x42>
     108:	84 30       	cpi	r24, 0x04	; 4
     10a:	09 f0       	breq	.+2      	; 0x10e <_fpadd_parts+0x2e>
     10c:	2f c1       	rjmp	.+606    	; 0x36c <_fpadd_parts+0x28c>
     10e:	11 96       	adiw	r26, 0x01	; 1
     110:	9c 91       	ld	r25, X
     112:	11 97       	sbiw	r26, 0x01	; 1
     114:	89 81       	ldd	r24, Y+1	; 0x01
     116:	98 17       	cp	r25, r24
     118:	09 f4       	brne	.+2      	; 0x11c <_fpadd_parts+0x3c>
     11a:	28 c1       	rjmp	.+592    	; 0x36c <_fpadd_parts+0x28c>
     11c:	a0 ea       	ldi	r26, 0xA0	; 160
     11e:	b0 e0       	ldi	r27, 0x00	; 0
     120:	25 c1       	rjmp	.+586    	; 0x36c <_fpadd_parts+0x28c>
     122:	84 30       	cpi	r24, 0x04	; 4
     124:	09 f4       	brne	.+2      	; 0x128 <_fpadd_parts+0x48>
     126:	21 c1       	rjmp	.+578    	; 0x36a <_fpadd_parts+0x28a>
     128:	82 30       	cpi	r24, 0x02	; 2
     12a:	a9 f4       	brne	.+42     	; 0x156 <_fpadd_parts+0x76>
     12c:	92 30       	cpi	r25, 0x02	; 2
     12e:	09 f0       	breq	.+2      	; 0x132 <_fpadd_parts+0x52>
     130:	1d c1       	rjmp	.+570    	; 0x36c <_fpadd_parts+0x28c>
     132:	9a 01       	movw	r18, r20
     134:	ad 01       	movw	r20, r26
     136:	88 e0       	ldi	r24, 0x08	; 8
     138:	ea 01       	movw	r28, r20
     13a:	09 90       	ld	r0, Y+
     13c:	ae 01       	movw	r20, r28
     13e:	e9 01       	movw	r28, r18
     140:	09 92       	st	Y+, r0
     142:	9e 01       	movw	r18, r28
     144:	81 50       	subi	r24, 0x01	; 1
     146:	c1 f7       	brne	.-16     	; 0x138 <_fpadd_parts+0x58>
     148:	e2 01       	movw	r28, r4
     14a:	89 81       	ldd	r24, Y+1	; 0x01
     14c:	11 96       	adiw	r26, 0x01	; 1
     14e:	9c 91       	ld	r25, X
     150:	89 23       	and	r24, r25
     152:	81 83       	std	Z+1, r24	; 0x01
     154:	08 c1       	rjmp	.+528    	; 0x366 <_fpadd_parts+0x286>
     156:	92 30       	cpi	r25, 0x02	; 2
     158:	09 f4       	brne	.+2      	; 0x15c <_fpadd_parts+0x7c>
     15a:	07 c1       	rjmp	.+526    	; 0x36a <_fpadd_parts+0x28a>
     15c:	12 96       	adiw	r26, 0x02	; 2
     15e:	2d 90       	ld	r2, X+
     160:	3c 90       	ld	r3, X
     162:	13 97       	sbiw	r26, 0x03	; 3
     164:	eb 01       	movw	r28, r22
     166:	8a 81       	ldd	r24, Y+2	; 0x02
     168:	9b 81       	ldd	r25, Y+3	; 0x03
     16a:	14 96       	adiw	r26, 0x04	; 4
     16c:	ad 90       	ld	r10, X+
     16e:	bd 90       	ld	r11, X+
     170:	cd 90       	ld	r12, X+
     172:	dc 90       	ld	r13, X
     174:	17 97       	sbiw	r26, 0x07	; 7
     176:	ec 80       	ldd	r14, Y+4	; 0x04
     178:	fd 80       	ldd	r15, Y+5	; 0x05
     17a:	0e 81       	ldd	r16, Y+6	; 0x06
     17c:	1f 81       	ldd	r17, Y+7	; 0x07
     17e:	91 01       	movw	r18, r2
     180:	28 1b       	sub	r18, r24
     182:	39 0b       	sbc	r19, r25
     184:	b9 01       	movw	r22, r18
     186:	37 ff       	sbrs	r19, 7
     188:	04 c0       	rjmp	.+8      	; 0x192 <_fpadd_parts+0xb2>
     18a:	66 27       	eor	r22, r22
     18c:	77 27       	eor	r23, r23
     18e:	62 1b       	sub	r22, r18
     190:	73 0b       	sbc	r23, r19
     192:	60 32       	cpi	r22, 0x20	; 32
     194:	71 05       	cpc	r23, r1
     196:	0c f0       	brlt	.+2      	; 0x19a <_fpadd_parts+0xba>
     198:	61 c0       	rjmp	.+194    	; 0x25c <_fpadd_parts+0x17c>
     19a:	12 16       	cp	r1, r18
     19c:	13 06       	cpc	r1, r19
     19e:	6c f5       	brge	.+90     	; 0x1fa <_fpadd_parts+0x11a>
     1a0:	37 01       	movw	r6, r14
     1a2:	48 01       	movw	r8, r16
     1a4:	06 2e       	mov	r0, r22
     1a6:	04 c0       	rjmp	.+8      	; 0x1b0 <_fpadd_parts+0xd0>
     1a8:	96 94       	lsr	r9
     1aa:	87 94       	ror	r8
     1ac:	77 94       	ror	r7
     1ae:	67 94       	ror	r6
     1b0:	0a 94       	dec	r0
     1b2:	d2 f7       	brpl	.-12     	; 0x1a8 <_fpadd_parts+0xc8>
     1b4:	21 e0       	ldi	r18, 0x01	; 1
     1b6:	30 e0       	ldi	r19, 0x00	; 0
     1b8:	40 e0       	ldi	r20, 0x00	; 0
     1ba:	50 e0       	ldi	r21, 0x00	; 0
     1bc:	04 c0       	rjmp	.+8      	; 0x1c6 <_fpadd_parts+0xe6>
     1be:	22 0f       	add	r18, r18
     1c0:	33 1f       	adc	r19, r19
     1c2:	44 1f       	adc	r20, r20
     1c4:	55 1f       	adc	r21, r21
     1c6:	6a 95       	dec	r22
     1c8:	d2 f7       	brpl	.-12     	; 0x1be <_fpadd_parts+0xde>
     1ca:	21 50       	subi	r18, 0x01	; 1
     1cc:	30 40       	sbci	r19, 0x00	; 0
     1ce:	40 40       	sbci	r20, 0x00	; 0
     1d0:	50 40       	sbci	r21, 0x00	; 0
     1d2:	2e 21       	and	r18, r14
     1d4:	3f 21       	and	r19, r15
     1d6:	40 23       	and	r20, r16
     1d8:	51 23       	and	r21, r17
     1da:	21 15       	cp	r18, r1
     1dc:	31 05       	cpc	r19, r1
     1de:	41 05       	cpc	r20, r1
     1e0:	51 05       	cpc	r21, r1
     1e2:	21 f0       	breq	.+8      	; 0x1ec <_fpadd_parts+0x10c>
     1e4:	21 e0       	ldi	r18, 0x01	; 1
     1e6:	30 e0       	ldi	r19, 0x00	; 0
     1e8:	40 e0       	ldi	r20, 0x00	; 0
     1ea:	50 e0       	ldi	r21, 0x00	; 0
     1ec:	79 01       	movw	r14, r18
     1ee:	8a 01       	movw	r16, r20
     1f0:	e6 28       	or	r14, r6
     1f2:	f7 28       	or	r15, r7
     1f4:	08 29       	or	r16, r8
     1f6:	19 29       	or	r17, r9
     1f8:	3c c0       	rjmp	.+120    	; 0x272 <_fpadd_parts+0x192>
     1fa:	23 2b       	or	r18, r19
     1fc:	d1 f1       	breq	.+116    	; 0x272 <_fpadd_parts+0x192>
     1fe:	26 0e       	add	r2, r22
     200:	37 1e       	adc	r3, r23
     202:	35 01       	movw	r6, r10
     204:	46 01       	movw	r8, r12
     206:	06 2e       	mov	r0, r22
     208:	04 c0       	rjmp	.+8      	; 0x212 <_fpadd_parts+0x132>
     20a:	96 94       	lsr	r9
     20c:	87 94       	ror	r8
     20e:	77 94       	ror	r7
     210:	67 94       	ror	r6
     212:	0a 94       	dec	r0
     214:	d2 f7       	brpl	.-12     	; 0x20a <_fpadd_parts+0x12a>
     216:	21 e0       	ldi	r18, 0x01	; 1
     218:	30 e0       	ldi	r19, 0x00	; 0
     21a:	40 e0       	ldi	r20, 0x00	; 0
     21c:	50 e0       	ldi	r21, 0x00	; 0
     21e:	04 c0       	rjmp	.+8      	; 0x228 <_fpadd_parts+0x148>
     220:	22 0f       	add	r18, r18
     222:	33 1f       	adc	r19, r19
     224:	44 1f       	adc	r20, r20
     226:	55 1f       	adc	r21, r21
     228:	6a 95       	dec	r22
     22a:	d2 f7       	brpl	.-12     	; 0x220 <_fpadd_parts+0x140>
     22c:	21 50       	subi	r18, 0x01	; 1
     22e:	30 40       	sbci	r19, 0x00	; 0
     230:	40 40       	sbci	r20, 0x00	; 0
     232:	50 40       	sbci	r21, 0x00	; 0
     234:	2a 21       	and	r18, r10
     236:	3b 21       	and	r19, r11
     238:	4c 21       	and	r20, r12
     23a:	5d 21       	and	r21, r13
     23c:	21 15       	cp	r18, r1
     23e:	31 05       	cpc	r19, r1
     240:	41 05       	cpc	r20, r1
     242:	51 05       	cpc	r21, r1
     244:	21 f0       	breq	.+8      	; 0x24e <_fpadd_parts+0x16e>
     246:	21 e0       	ldi	r18, 0x01	; 1
     248:	30 e0       	ldi	r19, 0x00	; 0
     24a:	40 e0       	ldi	r20, 0x00	; 0
     24c:	50 e0       	ldi	r21, 0x00	; 0
     24e:	59 01       	movw	r10, r18
     250:	6a 01       	movw	r12, r20
     252:	a6 28       	or	r10, r6
     254:	b7 28       	or	r11, r7
     256:	c8 28       	or	r12, r8
     258:	d9 28       	or	r13, r9
     25a:	0b c0       	rjmp	.+22     	; 0x272 <_fpadd_parts+0x192>
     25c:	82 15       	cp	r24, r2
     25e:	93 05       	cpc	r25, r3
     260:	2c f0       	brlt	.+10     	; 0x26c <_fpadd_parts+0x18c>
     262:	1c 01       	movw	r2, r24
     264:	aa 24       	eor	r10, r10
     266:	bb 24       	eor	r11, r11
     268:	65 01       	movw	r12, r10
     26a:	03 c0       	rjmp	.+6      	; 0x272 <_fpadd_parts+0x192>
     26c:	ee 24       	eor	r14, r14
     26e:	ff 24       	eor	r15, r15
     270:	87 01       	movw	r16, r14
     272:	11 96       	adiw	r26, 0x01	; 1
     274:	9c 91       	ld	r25, X
     276:	d2 01       	movw	r26, r4
     278:	11 96       	adiw	r26, 0x01	; 1
     27a:	8c 91       	ld	r24, X
     27c:	98 17       	cp	r25, r24
     27e:	09 f4       	brne	.+2      	; 0x282 <_fpadd_parts+0x1a2>
     280:	45 c0       	rjmp	.+138    	; 0x30c <_fpadd_parts+0x22c>
     282:	99 23       	and	r25, r25
     284:	39 f0       	breq	.+14     	; 0x294 <_fpadd_parts+0x1b4>
     286:	a8 01       	movw	r20, r16
     288:	97 01       	movw	r18, r14
     28a:	2a 19       	sub	r18, r10
     28c:	3b 09       	sbc	r19, r11
     28e:	4c 09       	sbc	r20, r12
     290:	5d 09       	sbc	r21, r13
     292:	06 c0       	rjmp	.+12     	; 0x2a0 <_fpadd_parts+0x1c0>
     294:	a6 01       	movw	r20, r12
     296:	95 01       	movw	r18, r10
     298:	2e 19       	sub	r18, r14
     29a:	3f 09       	sbc	r19, r15
     29c:	40 0b       	sbc	r20, r16
     29e:	51 0b       	sbc	r21, r17
     2a0:	57 fd       	sbrc	r21, 7
     2a2:	08 c0       	rjmp	.+16     	; 0x2b4 <_fpadd_parts+0x1d4>
     2a4:	11 82       	std	Z+1, r1	; 0x01
     2a6:	33 82       	std	Z+3, r3	; 0x03
     2a8:	22 82       	std	Z+2, r2	; 0x02
     2aa:	24 83       	std	Z+4, r18	; 0x04
     2ac:	35 83       	std	Z+5, r19	; 0x05
     2ae:	46 83       	std	Z+6, r20	; 0x06
     2b0:	57 83       	std	Z+7, r21	; 0x07
     2b2:	1d c0       	rjmp	.+58     	; 0x2ee <_fpadd_parts+0x20e>
     2b4:	81 e0       	ldi	r24, 0x01	; 1
     2b6:	81 83       	std	Z+1, r24	; 0x01
     2b8:	33 82       	std	Z+3, r3	; 0x03
     2ba:	22 82       	std	Z+2, r2	; 0x02
     2bc:	88 27       	eor	r24, r24
     2be:	99 27       	eor	r25, r25
     2c0:	dc 01       	movw	r26, r24
     2c2:	82 1b       	sub	r24, r18
     2c4:	93 0b       	sbc	r25, r19
     2c6:	a4 0b       	sbc	r26, r20
     2c8:	b5 0b       	sbc	r27, r21
     2ca:	84 83       	std	Z+4, r24	; 0x04
     2cc:	95 83       	std	Z+5, r25	; 0x05
     2ce:	a6 83       	std	Z+6, r26	; 0x06
     2d0:	b7 83       	std	Z+7, r27	; 0x07
     2d2:	0d c0       	rjmp	.+26     	; 0x2ee <_fpadd_parts+0x20e>
     2d4:	22 0f       	add	r18, r18
     2d6:	33 1f       	adc	r19, r19
     2d8:	44 1f       	adc	r20, r20
     2da:	55 1f       	adc	r21, r21
     2dc:	24 83       	std	Z+4, r18	; 0x04
     2de:	35 83       	std	Z+5, r19	; 0x05
     2e0:	46 83       	std	Z+6, r20	; 0x06
     2e2:	57 83       	std	Z+7, r21	; 0x07
     2e4:	82 81       	ldd	r24, Z+2	; 0x02
     2e6:	93 81       	ldd	r25, Z+3	; 0x03
     2e8:	01 97       	sbiw	r24, 0x01	; 1
     2ea:	93 83       	std	Z+3, r25	; 0x03
     2ec:	82 83       	std	Z+2, r24	; 0x02
     2ee:	24 81       	ldd	r18, Z+4	; 0x04
     2f0:	35 81       	ldd	r19, Z+5	; 0x05
     2f2:	46 81       	ldd	r20, Z+6	; 0x06
     2f4:	57 81       	ldd	r21, Z+7	; 0x07
     2f6:	da 01       	movw	r26, r20
     2f8:	c9 01       	movw	r24, r18
     2fa:	01 97       	sbiw	r24, 0x01	; 1
     2fc:	a1 09       	sbc	r26, r1
     2fe:	b1 09       	sbc	r27, r1
     300:	8f 5f       	subi	r24, 0xFF	; 255
     302:	9f 4f       	sbci	r25, 0xFF	; 255
     304:	af 4f       	sbci	r26, 0xFF	; 255
     306:	bf 43       	sbci	r27, 0x3F	; 63
     308:	28 f3       	brcs	.-54     	; 0x2d4 <_fpadd_parts+0x1f4>
     30a:	0b c0       	rjmp	.+22     	; 0x322 <_fpadd_parts+0x242>
     30c:	91 83       	std	Z+1, r25	; 0x01
     30e:	33 82       	std	Z+3, r3	; 0x03
     310:	22 82       	std	Z+2, r2	; 0x02
     312:	ea 0c       	add	r14, r10
     314:	fb 1c       	adc	r15, r11
     316:	0c 1d       	adc	r16, r12
     318:	1d 1d       	adc	r17, r13
     31a:	e4 82       	std	Z+4, r14	; 0x04
     31c:	f5 82       	std	Z+5, r15	; 0x05
     31e:	06 83       	std	Z+6, r16	; 0x06
     320:	17 83       	std	Z+7, r17	; 0x07
     322:	83 e0       	ldi	r24, 0x03	; 3
     324:	80 83       	st	Z, r24
     326:	24 81       	ldd	r18, Z+4	; 0x04
     328:	35 81       	ldd	r19, Z+5	; 0x05
     32a:	46 81       	ldd	r20, Z+6	; 0x06
     32c:	57 81       	ldd	r21, Z+7	; 0x07
     32e:	57 ff       	sbrs	r21, 7
     330:	1a c0       	rjmp	.+52     	; 0x366 <_fpadd_parts+0x286>
     332:	c9 01       	movw	r24, r18
     334:	aa 27       	eor	r26, r26
     336:	97 fd       	sbrc	r25, 7
     338:	a0 95       	com	r26
     33a:	ba 2f       	mov	r27, r26
     33c:	81 70       	andi	r24, 0x01	; 1
     33e:	90 70       	andi	r25, 0x00	; 0
     340:	a0 70       	andi	r26, 0x00	; 0
     342:	b0 70       	andi	r27, 0x00	; 0
     344:	56 95       	lsr	r21
     346:	47 95       	ror	r20
     348:	37 95       	ror	r19
     34a:	27 95       	ror	r18
     34c:	82 2b       	or	r24, r18
     34e:	93 2b       	or	r25, r19
     350:	a4 2b       	or	r26, r20
     352:	b5 2b       	or	r27, r21
     354:	84 83       	std	Z+4, r24	; 0x04
     356:	95 83       	std	Z+5, r25	; 0x05
     358:	a6 83       	std	Z+6, r26	; 0x06
     35a:	b7 83       	std	Z+7, r27	; 0x07
     35c:	82 81       	ldd	r24, Z+2	; 0x02
     35e:	93 81       	ldd	r25, Z+3	; 0x03
     360:	01 96       	adiw	r24, 0x01	; 1
     362:	93 83       	std	Z+3, r25	; 0x03
     364:	82 83       	std	Z+2, r24	; 0x02
     366:	df 01       	movw	r26, r30
     368:	01 c0       	rjmp	.+2      	; 0x36c <_fpadd_parts+0x28c>
     36a:	d2 01       	movw	r26, r4
     36c:	cd 01       	movw	r24, r26
     36e:	cd b7       	in	r28, 0x3d	; 61
     370:	de b7       	in	r29, 0x3e	; 62
     372:	e2 e1       	ldi	r30, 0x12	; 18
     374:	0c 94 4e 14 	jmp	0x289c	; 0x289c <__epilogue_restores__>

00000378 <__subsf3>:
     378:	a0 e2       	ldi	r26, 0x20	; 32
     37a:	b0 e0       	ldi	r27, 0x00	; 0
     37c:	e2 ec       	ldi	r30, 0xC2	; 194
     37e:	f1 e0       	ldi	r31, 0x01	; 1
     380:	0c 94 3e 14 	jmp	0x287c	; 0x287c <__prologue_saves__+0x18>
     384:	69 83       	std	Y+1, r22	; 0x01
     386:	7a 83       	std	Y+2, r23	; 0x02
     388:	8b 83       	std	Y+3, r24	; 0x03
     38a:	9c 83       	std	Y+4, r25	; 0x04
     38c:	2d 83       	std	Y+5, r18	; 0x05
     38e:	3e 83       	std	Y+6, r19	; 0x06
     390:	4f 83       	std	Y+7, r20	; 0x07
     392:	58 87       	std	Y+8, r21	; 0x08
     394:	e9 e0       	ldi	r30, 0x09	; 9
     396:	ee 2e       	mov	r14, r30
     398:	f1 2c       	mov	r15, r1
     39a:	ec 0e       	add	r14, r28
     39c:	fd 1e       	adc	r15, r29
     39e:	ce 01       	movw	r24, r28
     3a0:	01 96       	adiw	r24, 0x01	; 1
     3a2:	b7 01       	movw	r22, r14
     3a4:	51 d3       	rcall	.+1698   	; 0xa48 <__unpack_f>
     3a6:	8e 01       	movw	r16, r28
     3a8:	0f 5e       	subi	r16, 0xEF	; 239
     3aa:	1f 4f       	sbci	r17, 0xFF	; 255
     3ac:	ce 01       	movw	r24, r28
     3ae:	05 96       	adiw	r24, 0x05	; 5
     3b0:	b8 01       	movw	r22, r16
     3b2:	4a d3       	rcall	.+1684   	; 0xa48 <__unpack_f>
     3b4:	8a 89       	ldd	r24, Y+18	; 0x12
     3b6:	91 e0       	ldi	r25, 0x01	; 1
     3b8:	89 27       	eor	r24, r25
     3ba:	8a 8b       	std	Y+18, r24	; 0x12
     3bc:	c7 01       	movw	r24, r14
     3be:	b8 01       	movw	r22, r16
     3c0:	ae 01       	movw	r20, r28
     3c2:	47 5e       	subi	r20, 0xE7	; 231
     3c4:	5f 4f       	sbci	r21, 0xFF	; 255
     3c6:	8c de       	rcall	.-744    	; 0xe0 <_fpadd_parts>
     3c8:	6a d2       	rcall	.+1236   	; 0x89e <__pack_f>
     3ca:	a0 96       	adiw	r28, 0x20	; 32
     3cc:	e6 e0       	ldi	r30, 0x06	; 6
     3ce:	0c 94 5a 14 	jmp	0x28b4	; 0x28b4 <__epilogue_restores__+0x18>

000003d2 <__addsf3>:
     3d2:	a0 e2       	ldi	r26, 0x20	; 32
     3d4:	b0 e0       	ldi	r27, 0x00	; 0
     3d6:	ef ee       	ldi	r30, 0xEF	; 239
     3d8:	f1 e0       	ldi	r31, 0x01	; 1
     3da:	0c 94 3e 14 	jmp	0x287c	; 0x287c <__prologue_saves__+0x18>
     3de:	69 83       	std	Y+1, r22	; 0x01
     3e0:	7a 83       	std	Y+2, r23	; 0x02
     3e2:	8b 83       	std	Y+3, r24	; 0x03
     3e4:	9c 83       	std	Y+4, r25	; 0x04
     3e6:	2d 83       	std	Y+5, r18	; 0x05
     3e8:	3e 83       	std	Y+6, r19	; 0x06
     3ea:	4f 83       	std	Y+7, r20	; 0x07
     3ec:	58 87       	std	Y+8, r21	; 0x08
     3ee:	f9 e0       	ldi	r31, 0x09	; 9
     3f0:	ef 2e       	mov	r14, r31
     3f2:	f1 2c       	mov	r15, r1
     3f4:	ec 0e       	add	r14, r28
     3f6:	fd 1e       	adc	r15, r29
     3f8:	ce 01       	movw	r24, r28
     3fa:	01 96       	adiw	r24, 0x01	; 1
     3fc:	b7 01       	movw	r22, r14
     3fe:	24 d3       	rcall	.+1608   	; 0xa48 <__unpack_f>
     400:	8e 01       	movw	r16, r28
     402:	0f 5e       	subi	r16, 0xEF	; 239
     404:	1f 4f       	sbci	r17, 0xFF	; 255
     406:	ce 01       	movw	r24, r28
     408:	05 96       	adiw	r24, 0x05	; 5
     40a:	b8 01       	movw	r22, r16
     40c:	1d d3       	rcall	.+1594   	; 0xa48 <__unpack_f>
     40e:	c7 01       	movw	r24, r14
     410:	b8 01       	movw	r22, r16
     412:	ae 01       	movw	r20, r28
     414:	47 5e       	subi	r20, 0xE7	; 231
     416:	5f 4f       	sbci	r21, 0xFF	; 255
     418:	63 de       	rcall	.-826    	; 0xe0 <_fpadd_parts>
     41a:	41 d2       	rcall	.+1154   	; 0x89e <__pack_f>
     41c:	a0 96       	adiw	r28, 0x20	; 32
     41e:	e6 e0       	ldi	r30, 0x06	; 6
     420:	0c 94 5a 14 	jmp	0x28b4	; 0x28b4 <__epilogue_restores__+0x18>

00000424 <__mulsf3>:
     424:	a0 e2       	ldi	r26, 0x20	; 32
     426:	b0 e0       	ldi	r27, 0x00	; 0
     428:	e8 e1       	ldi	r30, 0x18	; 24
     42a:	f2 e0       	ldi	r31, 0x02	; 2
     42c:	0c 94 32 14 	jmp	0x2864	; 0x2864 <__prologue_saves__>
     430:	69 83       	std	Y+1, r22	; 0x01
     432:	7a 83       	std	Y+2, r23	; 0x02
     434:	8b 83       	std	Y+3, r24	; 0x03
     436:	9c 83       	std	Y+4, r25	; 0x04
     438:	2d 83       	std	Y+5, r18	; 0x05
     43a:	3e 83       	std	Y+6, r19	; 0x06
     43c:	4f 83       	std	Y+7, r20	; 0x07
     43e:	58 87       	std	Y+8, r21	; 0x08
     440:	ce 01       	movw	r24, r28
     442:	01 96       	adiw	r24, 0x01	; 1
     444:	be 01       	movw	r22, r28
     446:	67 5f       	subi	r22, 0xF7	; 247
     448:	7f 4f       	sbci	r23, 0xFF	; 255
     44a:	fe d2       	rcall	.+1532   	; 0xa48 <__unpack_f>
     44c:	ce 01       	movw	r24, r28
     44e:	05 96       	adiw	r24, 0x05	; 5
     450:	be 01       	movw	r22, r28
     452:	6f 5e       	subi	r22, 0xEF	; 239
     454:	7f 4f       	sbci	r23, 0xFF	; 255
     456:	f8 d2       	rcall	.+1520   	; 0xa48 <__unpack_f>
     458:	99 85       	ldd	r25, Y+9	; 0x09
     45a:	92 30       	cpi	r25, 0x02	; 2
     45c:	88 f0       	brcs	.+34     	; 0x480 <__mulsf3+0x5c>
     45e:	89 89       	ldd	r24, Y+17	; 0x11
     460:	82 30       	cpi	r24, 0x02	; 2
     462:	c8 f0       	brcs	.+50     	; 0x496 <__mulsf3+0x72>
     464:	94 30       	cpi	r25, 0x04	; 4
     466:	19 f4       	brne	.+6      	; 0x46e <__mulsf3+0x4a>
     468:	82 30       	cpi	r24, 0x02	; 2
     46a:	51 f4       	brne	.+20     	; 0x480 <__mulsf3+0x5c>
     46c:	04 c0       	rjmp	.+8      	; 0x476 <__mulsf3+0x52>
     46e:	84 30       	cpi	r24, 0x04	; 4
     470:	29 f4       	brne	.+10     	; 0x47c <__mulsf3+0x58>
     472:	92 30       	cpi	r25, 0x02	; 2
     474:	81 f4       	brne	.+32     	; 0x496 <__mulsf3+0x72>
     476:	80 ea       	ldi	r24, 0xA0	; 160
     478:	90 e0       	ldi	r25, 0x00	; 0
     47a:	c6 c0       	rjmp	.+396    	; 0x608 <__mulsf3+0x1e4>
     47c:	92 30       	cpi	r25, 0x02	; 2
     47e:	49 f4       	brne	.+18     	; 0x492 <__mulsf3+0x6e>
     480:	20 e0       	ldi	r18, 0x00	; 0
     482:	9a 85       	ldd	r25, Y+10	; 0x0a
     484:	8a 89       	ldd	r24, Y+18	; 0x12
     486:	98 13       	cpse	r25, r24
     488:	21 e0       	ldi	r18, 0x01	; 1
     48a:	2a 87       	std	Y+10, r18	; 0x0a
     48c:	ce 01       	movw	r24, r28
     48e:	09 96       	adiw	r24, 0x09	; 9
     490:	bb c0       	rjmp	.+374    	; 0x608 <__mulsf3+0x1e4>
     492:	82 30       	cpi	r24, 0x02	; 2
     494:	49 f4       	brne	.+18     	; 0x4a8 <__mulsf3+0x84>
     496:	20 e0       	ldi	r18, 0x00	; 0
     498:	9a 85       	ldd	r25, Y+10	; 0x0a
     49a:	8a 89       	ldd	r24, Y+18	; 0x12
     49c:	98 13       	cpse	r25, r24
     49e:	21 e0       	ldi	r18, 0x01	; 1
     4a0:	2a 8b       	std	Y+18, r18	; 0x12
     4a2:	ce 01       	movw	r24, r28
     4a4:	41 96       	adiw	r24, 0x11	; 17
     4a6:	b0 c0       	rjmp	.+352    	; 0x608 <__mulsf3+0x1e4>
     4a8:	2d 84       	ldd	r2, Y+13	; 0x0d
     4aa:	3e 84       	ldd	r3, Y+14	; 0x0e
     4ac:	4f 84       	ldd	r4, Y+15	; 0x0f
     4ae:	58 88       	ldd	r5, Y+16	; 0x10
     4b0:	6d 88       	ldd	r6, Y+21	; 0x15
     4b2:	7e 88       	ldd	r7, Y+22	; 0x16
     4b4:	8f 88       	ldd	r8, Y+23	; 0x17
     4b6:	98 8c       	ldd	r9, Y+24	; 0x18
     4b8:	ee 24       	eor	r14, r14
     4ba:	ff 24       	eor	r15, r15
     4bc:	87 01       	movw	r16, r14
     4be:	aa 24       	eor	r10, r10
     4c0:	bb 24       	eor	r11, r11
     4c2:	65 01       	movw	r12, r10
     4c4:	40 e0       	ldi	r20, 0x00	; 0
     4c6:	50 e0       	ldi	r21, 0x00	; 0
     4c8:	60 e0       	ldi	r22, 0x00	; 0
     4ca:	70 e0       	ldi	r23, 0x00	; 0
     4cc:	e0 e0       	ldi	r30, 0x00	; 0
     4ce:	f0 e0       	ldi	r31, 0x00	; 0
     4d0:	c1 01       	movw	r24, r2
     4d2:	81 70       	andi	r24, 0x01	; 1
     4d4:	90 70       	andi	r25, 0x00	; 0
     4d6:	89 2b       	or	r24, r25
     4d8:	e9 f0       	breq	.+58     	; 0x514 <__mulsf3+0xf0>
     4da:	e6 0c       	add	r14, r6
     4dc:	f7 1c       	adc	r15, r7
     4de:	08 1d       	adc	r16, r8
     4e0:	19 1d       	adc	r17, r9
     4e2:	9a 01       	movw	r18, r20
     4e4:	ab 01       	movw	r20, r22
     4e6:	2a 0d       	add	r18, r10
     4e8:	3b 1d       	adc	r19, r11
     4ea:	4c 1d       	adc	r20, r12
     4ec:	5d 1d       	adc	r21, r13
     4ee:	80 e0       	ldi	r24, 0x00	; 0
     4f0:	90 e0       	ldi	r25, 0x00	; 0
     4f2:	a0 e0       	ldi	r26, 0x00	; 0
     4f4:	b0 e0       	ldi	r27, 0x00	; 0
     4f6:	e6 14       	cp	r14, r6
     4f8:	f7 04       	cpc	r15, r7
     4fa:	08 05       	cpc	r16, r8
     4fc:	19 05       	cpc	r17, r9
     4fe:	20 f4       	brcc	.+8      	; 0x508 <__mulsf3+0xe4>
     500:	81 e0       	ldi	r24, 0x01	; 1
     502:	90 e0       	ldi	r25, 0x00	; 0
     504:	a0 e0       	ldi	r26, 0x00	; 0
     506:	b0 e0       	ldi	r27, 0x00	; 0
     508:	ba 01       	movw	r22, r20
     50a:	a9 01       	movw	r20, r18
     50c:	48 0f       	add	r20, r24
     50e:	59 1f       	adc	r21, r25
     510:	6a 1f       	adc	r22, r26
     512:	7b 1f       	adc	r23, r27
     514:	aa 0c       	add	r10, r10
     516:	bb 1c       	adc	r11, r11
     518:	cc 1c       	adc	r12, r12
     51a:	dd 1c       	adc	r13, r13
     51c:	97 fe       	sbrs	r9, 7
     51e:	08 c0       	rjmp	.+16     	; 0x530 <__mulsf3+0x10c>
     520:	81 e0       	ldi	r24, 0x01	; 1
     522:	90 e0       	ldi	r25, 0x00	; 0
     524:	a0 e0       	ldi	r26, 0x00	; 0
     526:	b0 e0       	ldi	r27, 0x00	; 0
     528:	a8 2a       	or	r10, r24
     52a:	b9 2a       	or	r11, r25
     52c:	ca 2a       	or	r12, r26
     52e:	db 2a       	or	r13, r27
     530:	31 96       	adiw	r30, 0x01	; 1
     532:	e0 32       	cpi	r30, 0x20	; 32
     534:	f1 05       	cpc	r31, r1
     536:	49 f0       	breq	.+18     	; 0x54a <__mulsf3+0x126>
     538:	66 0c       	add	r6, r6
     53a:	77 1c       	adc	r7, r7
     53c:	88 1c       	adc	r8, r8
     53e:	99 1c       	adc	r9, r9
     540:	56 94       	lsr	r5
     542:	47 94       	ror	r4
     544:	37 94       	ror	r3
     546:	27 94       	ror	r2
     548:	c3 cf       	rjmp	.-122    	; 0x4d0 <__mulsf3+0xac>
     54a:	fa 85       	ldd	r31, Y+10	; 0x0a
     54c:	ea 89       	ldd	r30, Y+18	; 0x12
     54e:	2b 89       	ldd	r18, Y+19	; 0x13
     550:	3c 89       	ldd	r19, Y+20	; 0x14
     552:	8b 85       	ldd	r24, Y+11	; 0x0b
     554:	9c 85       	ldd	r25, Y+12	; 0x0c
     556:	28 0f       	add	r18, r24
     558:	39 1f       	adc	r19, r25
     55a:	2e 5f       	subi	r18, 0xFE	; 254
     55c:	3f 4f       	sbci	r19, 0xFF	; 255
     55e:	17 c0       	rjmp	.+46     	; 0x58e <__mulsf3+0x16a>
     560:	ca 01       	movw	r24, r20
     562:	81 70       	andi	r24, 0x01	; 1
     564:	90 70       	andi	r25, 0x00	; 0
     566:	89 2b       	or	r24, r25
     568:	61 f0       	breq	.+24     	; 0x582 <__mulsf3+0x15e>
     56a:	16 95       	lsr	r17
     56c:	07 95       	ror	r16
     56e:	f7 94       	ror	r15
     570:	e7 94       	ror	r14
     572:	80 e0       	ldi	r24, 0x00	; 0
     574:	90 e0       	ldi	r25, 0x00	; 0
     576:	a0 e0       	ldi	r26, 0x00	; 0
     578:	b0 e8       	ldi	r27, 0x80	; 128
     57a:	e8 2a       	or	r14, r24
     57c:	f9 2a       	or	r15, r25
     57e:	0a 2b       	or	r16, r26
     580:	1b 2b       	or	r17, r27
     582:	76 95       	lsr	r23
     584:	67 95       	ror	r22
     586:	57 95       	ror	r21
     588:	47 95       	ror	r20
     58a:	2f 5f       	subi	r18, 0xFF	; 255
     58c:	3f 4f       	sbci	r19, 0xFF	; 255
     58e:	77 fd       	sbrc	r23, 7
     590:	e7 cf       	rjmp	.-50     	; 0x560 <__mulsf3+0x13c>
     592:	0c c0       	rjmp	.+24     	; 0x5ac <__mulsf3+0x188>
     594:	44 0f       	add	r20, r20
     596:	55 1f       	adc	r21, r21
     598:	66 1f       	adc	r22, r22
     59a:	77 1f       	adc	r23, r23
     59c:	17 fd       	sbrc	r17, 7
     59e:	41 60       	ori	r20, 0x01	; 1
     5a0:	ee 0c       	add	r14, r14
     5a2:	ff 1c       	adc	r15, r15
     5a4:	00 1f       	adc	r16, r16
     5a6:	11 1f       	adc	r17, r17
     5a8:	21 50       	subi	r18, 0x01	; 1
     5aa:	30 40       	sbci	r19, 0x00	; 0
     5ac:	40 30       	cpi	r20, 0x00	; 0
     5ae:	90 e0       	ldi	r25, 0x00	; 0
     5b0:	59 07       	cpc	r21, r25
     5b2:	90 e0       	ldi	r25, 0x00	; 0
     5b4:	69 07       	cpc	r22, r25
     5b6:	90 e4       	ldi	r25, 0x40	; 64
     5b8:	79 07       	cpc	r23, r25
     5ba:	60 f3       	brcs	.-40     	; 0x594 <__mulsf3+0x170>
     5bc:	2b 8f       	std	Y+27, r18	; 0x1b
     5be:	3c 8f       	std	Y+28, r19	; 0x1c
     5c0:	db 01       	movw	r26, r22
     5c2:	ca 01       	movw	r24, r20
     5c4:	8f 77       	andi	r24, 0x7F	; 127
     5c6:	90 70       	andi	r25, 0x00	; 0
     5c8:	a0 70       	andi	r26, 0x00	; 0
     5ca:	b0 70       	andi	r27, 0x00	; 0
     5cc:	80 34       	cpi	r24, 0x40	; 64
     5ce:	91 05       	cpc	r25, r1
     5d0:	a1 05       	cpc	r26, r1
     5d2:	b1 05       	cpc	r27, r1
     5d4:	61 f4       	brne	.+24     	; 0x5ee <__mulsf3+0x1ca>
     5d6:	47 fd       	sbrc	r20, 7
     5d8:	0a c0       	rjmp	.+20     	; 0x5ee <__mulsf3+0x1ca>
     5da:	e1 14       	cp	r14, r1
     5dc:	f1 04       	cpc	r15, r1
     5de:	01 05       	cpc	r16, r1
     5e0:	11 05       	cpc	r17, r1
     5e2:	29 f0       	breq	.+10     	; 0x5ee <__mulsf3+0x1ca>
     5e4:	40 5c       	subi	r20, 0xC0	; 192
     5e6:	5f 4f       	sbci	r21, 0xFF	; 255
     5e8:	6f 4f       	sbci	r22, 0xFF	; 255
     5ea:	7f 4f       	sbci	r23, 0xFF	; 255
     5ec:	40 78       	andi	r20, 0x80	; 128
     5ee:	1a 8e       	std	Y+26, r1	; 0x1a
     5f0:	fe 17       	cp	r31, r30
     5f2:	11 f0       	breq	.+4      	; 0x5f8 <__mulsf3+0x1d4>
     5f4:	81 e0       	ldi	r24, 0x01	; 1
     5f6:	8a 8f       	std	Y+26, r24	; 0x1a
     5f8:	4d 8f       	std	Y+29, r20	; 0x1d
     5fa:	5e 8f       	std	Y+30, r21	; 0x1e
     5fc:	6f 8f       	std	Y+31, r22	; 0x1f
     5fe:	78 a3       	std	Y+32, r23	; 0x20
     600:	83 e0       	ldi	r24, 0x03	; 3
     602:	89 8f       	std	Y+25, r24	; 0x19
     604:	ce 01       	movw	r24, r28
     606:	49 96       	adiw	r24, 0x19	; 25
     608:	4a d1       	rcall	.+660    	; 0x89e <__pack_f>
     60a:	a0 96       	adiw	r28, 0x20	; 32
     60c:	e2 e1       	ldi	r30, 0x12	; 18
     60e:	0c 94 4e 14 	jmp	0x289c	; 0x289c <__epilogue_restores__>

00000612 <__gesf2>:
     612:	a8 e1       	ldi	r26, 0x18	; 24
     614:	b0 e0       	ldi	r27, 0x00	; 0
     616:	ef e0       	ldi	r30, 0x0F	; 15
     618:	f3 e0       	ldi	r31, 0x03	; 3
     61a:	0c 94 3e 14 	jmp	0x287c	; 0x287c <__prologue_saves__+0x18>
     61e:	69 83       	std	Y+1, r22	; 0x01
     620:	7a 83       	std	Y+2, r23	; 0x02
     622:	8b 83       	std	Y+3, r24	; 0x03
     624:	9c 83       	std	Y+4, r25	; 0x04
     626:	2d 83       	std	Y+5, r18	; 0x05
     628:	3e 83       	std	Y+6, r19	; 0x06
     62a:	4f 83       	std	Y+7, r20	; 0x07
     62c:	58 87       	std	Y+8, r21	; 0x08
     62e:	89 e0       	ldi	r24, 0x09	; 9
     630:	e8 2e       	mov	r14, r24
     632:	f1 2c       	mov	r15, r1
     634:	ec 0e       	add	r14, r28
     636:	fd 1e       	adc	r15, r29
     638:	ce 01       	movw	r24, r28
     63a:	01 96       	adiw	r24, 0x01	; 1
     63c:	b7 01       	movw	r22, r14
     63e:	04 d2       	rcall	.+1032   	; 0xa48 <__unpack_f>
     640:	8e 01       	movw	r16, r28
     642:	0f 5e       	subi	r16, 0xEF	; 239
     644:	1f 4f       	sbci	r17, 0xFF	; 255
     646:	ce 01       	movw	r24, r28
     648:	05 96       	adiw	r24, 0x05	; 5
     64a:	b8 01       	movw	r22, r16
     64c:	fd d1       	rcall	.+1018   	; 0xa48 <__unpack_f>
     64e:	89 85       	ldd	r24, Y+9	; 0x09
     650:	82 30       	cpi	r24, 0x02	; 2
     652:	38 f0       	brcs	.+14     	; 0x662 <__gesf2+0x50>
     654:	89 89       	ldd	r24, Y+17	; 0x11
     656:	82 30       	cpi	r24, 0x02	; 2
     658:	20 f0       	brcs	.+8      	; 0x662 <__gesf2+0x50>
     65a:	c7 01       	movw	r24, r14
     65c:	b8 01       	movw	r22, r16
     65e:	6c d2       	rcall	.+1240   	; 0xb38 <__fpcmp_parts_f>
     660:	01 c0       	rjmp	.+2      	; 0x664 <__gesf2+0x52>
     662:	8f ef       	ldi	r24, 0xFF	; 255
     664:	68 96       	adiw	r28, 0x18	; 24
     666:	e6 e0       	ldi	r30, 0x06	; 6
     668:	0c 94 5a 14 	jmp	0x28b4	; 0x28b4 <__epilogue_restores__+0x18>

0000066c <__fixsfsi>:
     66c:	ac e0       	ldi	r26, 0x0C	; 12
     66e:	b0 e0       	ldi	r27, 0x00	; 0
     670:	ec e3       	ldi	r30, 0x3C	; 60
     672:	f3 e0       	ldi	r31, 0x03	; 3
     674:	0c 94 42 14 	jmp	0x2884	; 0x2884 <__prologue_saves__+0x20>
     678:	69 83       	std	Y+1, r22	; 0x01
     67a:	7a 83       	std	Y+2, r23	; 0x02
     67c:	8b 83       	std	Y+3, r24	; 0x03
     67e:	9c 83       	std	Y+4, r25	; 0x04
     680:	ce 01       	movw	r24, r28
     682:	01 96       	adiw	r24, 0x01	; 1
     684:	be 01       	movw	r22, r28
     686:	6b 5f       	subi	r22, 0xFB	; 251
     688:	7f 4f       	sbci	r23, 0xFF	; 255
     68a:	de d1       	rcall	.+956    	; 0xa48 <__unpack_f>
     68c:	8d 81       	ldd	r24, Y+5	; 0x05
     68e:	82 30       	cpi	r24, 0x02	; 2
     690:	61 f1       	breq	.+88     	; 0x6ea <__fixsfsi+0x7e>
     692:	82 30       	cpi	r24, 0x02	; 2
     694:	50 f1       	brcs	.+84     	; 0x6ea <__fixsfsi+0x7e>
     696:	84 30       	cpi	r24, 0x04	; 4
     698:	21 f4       	brne	.+8      	; 0x6a2 <__fixsfsi+0x36>
     69a:	8e 81       	ldd	r24, Y+6	; 0x06
     69c:	88 23       	and	r24, r24
     69e:	51 f1       	breq	.+84     	; 0x6f4 <__fixsfsi+0x88>
     6a0:	2e c0       	rjmp	.+92     	; 0x6fe <__fixsfsi+0x92>
     6a2:	2f 81       	ldd	r18, Y+7	; 0x07
     6a4:	38 85       	ldd	r19, Y+8	; 0x08
     6a6:	37 fd       	sbrc	r19, 7
     6a8:	20 c0       	rjmp	.+64     	; 0x6ea <__fixsfsi+0x7e>
     6aa:	6e 81       	ldd	r22, Y+6	; 0x06
     6ac:	2f 31       	cpi	r18, 0x1F	; 31
     6ae:	31 05       	cpc	r19, r1
     6b0:	1c f0       	brlt	.+6      	; 0x6b8 <__fixsfsi+0x4c>
     6b2:	66 23       	and	r22, r22
     6b4:	f9 f0       	breq	.+62     	; 0x6f4 <__fixsfsi+0x88>
     6b6:	23 c0       	rjmp	.+70     	; 0x6fe <__fixsfsi+0x92>
     6b8:	8e e1       	ldi	r24, 0x1E	; 30
     6ba:	90 e0       	ldi	r25, 0x00	; 0
     6bc:	82 1b       	sub	r24, r18
     6be:	93 0b       	sbc	r25, r19
     6c0:	29 85       	ldd	r18, Y+9	; 0x09
     6c2:	3a 85       	ldd	r19, Y+10	; 0x0a
     6c4:	4b 85       	ldd	r20, Y+11	; 0x0b
     6c6:	5c 85       	ldd	r21, Y+12	; 0x0c
     6c8:	04 c0       	rjmp	.+8      	; 0x6d2 <__fixsfsi+0x66>
     6ca:	56 95       	lsr	r21
     6cc:	47 95       	ror	r20
     6ce:	37 95       	ror	r19
     6d0:	27 95       	ror	r18
     6d2:	8a 95       	dec	r24
     6d4:	d2 f7       	brpl	.-12     	; 0x6ca <__fixsfsi+0x5e>
     6d6:	66 23       	and	r22, r22
     6d8:	b1 f0       	breq	.+44     	; 0x706 <__fixsfsi+0x9a>
     6da:	50 95       	com	r21
     6dc:	40 95       	com	r20
     6de:	30 95       	com	r19
     6e0:	21 95       	neg	r18
     6e2:	3f 4f       	sbci	r19, 0xFF	; 255
     6e4:	4f 4f       	sbci	r20, 0xFF	; 255
     6e6:	5f 4f       	sbci	r21, 0xFF	; 255
     6e8:	0e c0       	rjmp	.+28     	; 0x706 <__fixsfsi+0x9a>
     6ea:	20 e0       	ldi	r18, 0x00	; 0
     6ec:	30 e0       	ldi	r19, 0x00	; 0
     6ee:	40 e0       	ldi	r20, 0x00	; 0
     6f0:	50 e0       	ldi	r21, 0x00	; 0
     6f2:	09 c0       	rjmp	.+18     	; 0x706 <__fixsfsi+0x9a>
     6f4:	2f ef       	ldi	r18, 0xFF	; 255
     6f6:	3f ef       	ldi	r19, 0xFF	; 255
     6f8:	4f ef       	ldi	r20, 0xFF	; 255
     6fa:	5f e7       	ldi	r21, 0x7F	; 127
     6fc:	04 c0       	rjmp	.+8      	; 0x706 <__fixsfsi+0x9a>
     6fe:	20 e0       	ldi	r18, 0x00	; 0
     700:	30 e0       	ldi	r19, 0x00	; 0
     702:	40 e0       	ldi	r20, 0x00	; 0
     704:	50 e8       	ldi	r21, 0x80	; 128
     706:	b9 01       	movw	r22, r18
     708:	ca 01       	movw	r24, r20
     70a:	2c 96       	adiw	r28, 0x0c	; 12
     70c:	e2 e0       	ldi	r30, 0x02	; 2
     70e:	0c 94 5e 14 	jmp	0x28bc	; 0x28bc <__epilogue_restores__+0x20>

00000712 <__floatunsisf>:
     712:	a8 e0       	ldi	r26, 0x08	; 8
     714:	b0 e0       	ldi	r27, 0x00	; 0
     716:	ef e8       	ldi	r30, 0x8F	; 143
     718:	f3 e0       	ldi	r31, 0x03	; 3
     71a:	0c 94 3a 14 	jmp	0x2874	; 0x2874 <__prologue_saves__+0x10>
     71e:	7b 01       	movw	r14, r22
     720:	8c 01       	movw	r16, r24
     722:	61 15       	cp	r22, r1
     724:	71 05       	cpc	r23, r1
     726:	81 05       	cpc	r24, r1
     728:	91 05       	cpc	r25, r1
     72a:	19 f4       	brne	.+6      	; 0x732 <__floatunsisf+0x20>
     72c:	82 e0       	ldi	r24, 0x02	; 2
     72e:	89 83       	std	Y+1, r24	; 0x01
     730:	5f c0       	rjmp	.+190    	; 0x7f0 <__floatunsisf+0xde>
     732:	83 e0       	ldi	r24, 0x03	; 3
     734:	89 83       	std	Y+1, r24	; 0x01
     736:	8e e1       	ldi	r24, 0x1E	; 30
     738:	c8 2e       	mov	r12, r24
     73a:	d1 2c       	mov	r13, r1
     73c:	dc 82       	std	Y+4, r13	; 0x04
     73e:	cb 82       	std	Y+3, r12	; 0x03
     740:	ed 82       	std	Y+5, r14	; 0x05
     742:	fe 82       	std	Y+6, r15	; 0x06
     744:	0f 83       	std	Y+7, r16	; 0x07
     746:	18 87       	std	Y+8, r17	; 0x08
     748:	c8 01       	movw	r24, r16
     74a:	b7 01       	movw	r22, r14
     74c:	59 d0       	rcall	.+178    	; 0x800 <__clzsi2>
     74e:	fc 01       	movw	r30, r24
     750:	31 97       	sbiw	r30, 0x01	; 1
     752:	f7 ff       	sbrs	r31, 7
     754:	3b c0       	rjmp	.+118    	; 0x7cc <__floatunsisf+0xba>
     756:	22 27       	eor	r18, r18
     758:	33 27       	eor	r19, r19
     75a:	2e 1b       	sub	r18, r30
     75c:	3f 0b       	sbc	r19, r31
     75e:	57 01       	movw	r10, r14
     760:	68 01       	movw	r12, r16
     762:	02 2e       	mov	r0, r18
     764:	04 c0       	rjmp	.+8      	; 0x76e <__floatunsisf+0x5c>
     766:	d6 94       	lsr	r13
     768:	c7 94       	ror	r12
     76a:	b7 94       	ror	r11
     76c:	a7 94       	ror	r10
     76e:	0a 94       	dec	r0
     770:	d2 f7       	brpl	.-12     	; 0x766 <__floatunsisf+0x54>
     772:	40 e0       	ldi	r20, 0x00	; 0
     774:	50 e0       	ldi	r21, 0x00	; 0
     776:	60 e0       	ldi	r22, 0x00	; 0
     778:	70 e0       	ldi	r23, 0x00	; 0
     77a:	81 e0       	ldi	r24, 0x01	; 1
     77c:	90 e0       	ldi	r25, 0x00	; 0
     77e:	a0 e0       	ldi	r26, 0x00	; 0
     780:	b0 e0       	ldi	r27, 0x00	; 0
     782:	04 c0       	rjmp	.+8      	; 0x78c <__floatunsisf+0x7a>
     784:	88 0f       	add	r24, r24
     786:	99 1f       	adc	r25, r25
     788:	aa 1f       	adc	r26, r26
     78a:	bb 1f       	adc	r27, r27
     78c:	2a 95       	dec	r18
     78e:	d2 f7       	brpl	.-12     	; 0x784 <__floatunsisf+0x72>
     790:	01 97       	sbiw	r24, 0x01	; 1
     792:	a1 09       	sbc	r26, r1
     794:	b1 09       	sbc	r27, r1
     796:	8e 21       	and	r24, r14
     798:	9f 21       	and	r25, r15
     79a:	a0 23       	and	r26, r16
     79c:	b1 23       	and	r27, r17
     79e:	00 97       	sbiw	r24, 0x00	; 0
     7a0:	a1 05       	cpc	r26, r1
     7a2:	b1 05       	cpc	r27, r1
     7a4:	21 f0       	breq	.+8      	; 0x7ae <__floatunsisf+0x9c>
     7a6:	41 e0       	ldi	r20, 0x01	; 1
     7a8:	50 e0       	ldi	r21, 0x00	; 0
     7aa:	60 e0       	ldi	r22, 0x00	; 0
     7ac:	70 e0       	ldi	r23, 0x00	; 0
     7ae:	4a 29       	or	r20, r10
     7b0:	5b 29       	or	r21, r11
     7b2:	6c 29       	or	r22, r12
     7b4:	7d 29       	or	r23, r13
     7b6:	4d 83       	std	Y+5, r20	; 0x05
     7b8:	5e 83       	std	Y+6, r21	; 0x06
     7ba:	6f 83       	std	Y+7, r22	; 0x07
     7bc:	78 87       	std	Y+8, r23	; 0x08
     7be:	8e e1       	ldi	r24, 0x1E	; 30
     7c0:	90 e0       	ldi	r25, 0x00	; 0
     7c2:	8e 1b       	sub	r24, r30
     7c4:	9f 0b       	sbc	r25, r31
     7c6:	9c 83       	std	Y+4, r25	; 0x04
     7c8:	8b 83       	std	Y+3, r24	; 0x03
     7ca:	12 c0       	rjmp	.+36     	; 0x7f0 <__floatunsisf+0xde>
     7cc:	30 97       	sbiw	r30, 0x00	; 0
     7ce:	81 f0       	breq	.+32     	; 0x7f0 <__floatunsisf+0xde>
     7d0:	0e 2e       	mov	r0, r30
     7d2:	04 c0       	rjmp	.+8      	; 0x7dc <__floatunsisf+0xca>
     7d4:	ee 0c       	add	r14, r14
     7d6:	ff 1c       	adc	r15, r15
     7d8:	00 1f       	adc	r16, r16
     7da:	11 1f       	adc	r17, r17
     7dc:	0a 94       	dec	r0
     7de:	d2 f7       	brpl	.-12     	; 0x7d4 <__floatunsisf+0xc2>
     7e0:	ed 82       	std	Y+5, r14	; 0x05
     7e2:	fe 82       	std	Y+6, r15	; 0x06
     7e4:	0f 83       	std	Y+7, r16	; 0x07
     7e6:	18 87       	std	Y+8, r17	; 0x08
     7e8:	ce 1a       	sub	r12, r30
     7ea:	df 0a       	sbc	r13, r31
     7ec:	dc 82       	std	Y+4, r13	; 0x04
     7ee:	cb 82       	std	Y+3, r12	; 0x03
     7f0:	1a 82       	std	Y+2, r1	; 0x02
     7f2:	ce 01       	movw	r24, r28
     7f4:	01 96       	adiw	r24, 0x01	; 1
     7f6:	53 d0       	rcall	.+166    	; 0x89e <__pack_f>
     7f8:	28 96       	adiw	r28, 0x08	; 8
     7fa:	ea e0       	ldi	r30, 0x0A	; 10
     7fc:	0c 94 56 14 	jmp	0x28ac	; 0x28ac <__epilogue_restores__+0x10>

00000800 <__clzsi2>:
     800:	ef 92       	push	r14
     802:	ff 92       	push	r15
     804:	0f 93       	push	r16
     806:	1f 93       	push	r17
     808:	7b 01       	movw	r14, r22
     80a:	8c 01       	movw	r16, r24
     80c:	80 e0       	ldi	r24, 0x00	; 0
     80e:	e8 16       	cp	r14, r24
     810:	80 e0       	ldi	r24, 0x00	; 0
     812:	f8 06       	cpc	r15, r24
     814:	81 e0       	ldi	r24, 0x01	; 1
     816:	08 07       	cpc	r16, r24
     818:	80 e0       	ldi	r24, 0x00	; 0
     81a:	18 07       	cpc	r17, r24
     81c:	88 f4       	brcc	.+34     	; 0x840 <__clzsi2+0x40>
     81e:	8f ef       	ldi	r24, 0xFF	; 255
     820:	e8 16       	cp	r14, r24
     822:	f1 04       	cpc	r15, r1
     824:	01 05       	cpc	r16, r1
     826:	11 05       	cpc	r17, r1
     828:	31 f0       	breq	.+12     	; 0x836 <__clzsi2+0x36>
     82a:	28 f0       	brcs	.+10     	; 0x836 <__clzsi2+0x36>
     82c:	88 e0       	ldi	r24, 0x08	; 8
     82e:	90 e0       	ldi	r25, 0x00	; 0
     830:	a0 e0       	ldi	r26, 0x00	; 0
     832:	b0 e0       	ldi	r27, 0x00	; 0
     834:	17 c0       	rjmp	.+46     	; 0x864 <__stack+0x5>
     836:	80 e0       	ldi	r24, 0x00	; 0
     838:	90 e0       	ldi	r25, 0x00	; 0
     83a:	a0 e0       	ldi	r26, 0x00	; 0
     83c:	b0 e0       	ldi	r27, 0x00	; 0
     83e:	12 c0       	rjmp	.+36     	; 0x864 <__stack+0x5>
     840:	80 e0       	ldi	r24, 0x00	; 0
     842:	e8 16       	cp	r14, r24
     844:	80 e0       	ldi	r24, 0x00	; 0
     846:	f8 06       	cpc	r15, r24
     848:	80 e0       	ldi	r24, 0x00	; 0
     84a:	08 07       	cpc	r16, r24
     84c:	81 e0       	ldi	r24, 0x01	; 1
     84e:	18 07       	cpc	r17, r24
     850:	28 f0       	brcs	.+10     	; 0x85c <__clzsi2+0x5c>
     852:	88 e1       	ldi	r24, 0x18	; 24
     854:	90 e0       	ldi	r25, 0x00	; 0
     856:	a0 e0       	ldi	r26, 0x00	; 0
     858:	b0 e0       	ldi	r27, 0x00	; 0
     85a:	04 c0       	rjmp	.+8      	; 0x864 <__stack+0x5>
     85c:	80 e1       	ldi	r24, 0x10	; 16
     85e:	90 e0       	ldi	r25, 0x00	; 0
     860:	a0 e0       	ldi	r26, 0x00	; 0
     862:	b0 e0       	ldi	r27, 0x00	; 0
     864:	20 e2       	ldi	r18, 0x20	; 32
     866:	30 e0       	ldi	r19, 0x00	; 0
     868:	40 e0       	ldi	r20, 0x00	; 0
     86a:	50 e0       	ldi	r21, 0x00	; 0
     86c:	28 1b       	sub	r18, r24
     86e:	39 0b       	sbc	r19, r25
     870:	4a 0b       	sbc	r20, r26
     872:	5b 0b       	sbc	r21, r27
     874:	04 c0       	rjmp	.+8      	; 0x87e <__stack+0x1f>
     876:	16 95       	lsr	r17
     878:	07 95       	ror	r16
     87a:	f7 94       	ror	r15
     87c:	e7 94       	ror	r14
     87e:	8a 95       	dec	r24
     880:	d2 f7       	brpl	.-12     	; 0x876 <__stack+0x17>
     882:	f7 01       	movw	r30, r14
     884:	e8 55       	subi	r30, 0x58	; 88
     886:	ff 4f       	sbci	r31, 0xFF	; 255
     888:	80 81       	ld	r24, Z
     88a:	28 1b       	sub	r18, r24
     88c:	31 09       	sbc	r19, r1
     88e:	41 09       	sbc	r20, r1
     890:	51 09       	sbc	r21, r1
     892:	c9 01       	movw	r24, r18
     894:	1f 91       	pop	r17
     896:	0f 91       	pop	r16
     898:	ff 90       	pop	r15
     89a:	ef 90       	pop	r14
     89c:	08 95       	ret

0000089e <__pack_f>:
     89e:	df 92       	push	r13
     8a0:	ef 92       	push	r14
     8a2:	ff 92       	push	r15
     8a4:	0f 93       	push	r16
     8a6:	1f 93       	push	r17
     8a8:	fc 01       	movw	r30, r24
     8aa:	e4 80       	ldd	r14, Z+4	; 0x04
     8ac:	f5 80       	ldd	r15, Z+5	; 0x05
     8ae:	06 81       	ldd	r16, Z+6	; 0x06
     8b0:	17 81       	ldd	r17, Z+7	; 0x07
     8b2:	d1 80       	ldd	r13, Z+1	; 0x01
     8b4:	80 81       	ld	r24, Z
     8b6:	82 30       	cpi	r24, 0x02	; 2
     8b8:	48 f4       	brcc	.+18     	; 0x8cc <__pack_f+0x2e>
     8ba:	80 e0       	ldi	r24, 0x00	; 0
     8bc:	90 e0       	ldi	r25, 0x00	; 0
     8be:	a0 e1       	ldi	r26, 0x10	; 16
     8c0:	b0 e0       	ldi	r27, 0x00	; 0
     8c2:	e8 2a       	or	r14, r24
     8c4:	f9 2a       	or	r15, r25
     8c6:	0a 2b       	or	r16, r26
     8c8:	1b 2b       	or	r17, r27
     8ca:	a5 c0       	rjmp	.+330    	; 0xa16 <__pack_f+0x178>
     8cc:	84 30       	cpi	r24, 0x04	; 4
     8ce:	09 f4       	brne	.+2      	; 0x8d2 <__pack_f+0x34>
     8d0:	9f c0       	rjmp	.+318    	; 0xa10 <__pack_f+0x172>
     8d2:	82 30       	cpi	r24, 0x02	; 2
     8d4:	21 f4       	brne	.+8      	; 0x8de <__pack_f+0x40>
     8d6:	ee 24       	eor	r14, r14
     8d8:	ff 24       	eor	r15, r15
     8da:	87 01       	movw	r16, r14
     8dc:	05 c0       	rjmp	.+10     	; 0x8e8 <__pack_f+0x4a>
     8de:	e1 14       	cp	r14, r1
     8e0:	f1 04       	cpc	r15, r1
     8e2:	01 05       	cpc	r16, r1
     8e4:	11 05       	cpc	r17, r1
     8e6:	19 f4       	brne	.+6      	; 0x8ee <__pack_f+0x50>
     8e8:	e0 e0       	ldi	r30, 0x00	; 0
     8ea:	f0 e0       	ldi	r31, 0x00	; 0
     8ec:	96 c0       	rjmp	.+300    	; 0xa1a <__pack_f+0x17c>
     8ee:	62 81       	ldd	r22, Z+2	; 0x02
     8f0:	73 81       	ldd	r23, Z+3	; 0x03
     8f2:	9f ef       	ldi	r25, 0xFF	; 255
     8f4:	62 38       	cpi	r22, 0x82	; 130
     8f6:	79 07       	cpc	r23, r25
     8f8:	0c f0       	brlt	.+2      	; 0x8fc <__pack_f+0x5e>
     8fa:	5b c0       	rjmp	.+182    	; 0x9b2 <__pack_f+0x114>
     8fc:	22 e8       	ldi	r18, 0x82	; 130
     8fe:	3f ef       	ldi	r19, 0xFF	; 255
     900:	26 1b       	sub	r18, r22
     902:	37 0b       	sbc	r19, r23
     904:	2a 31       	cpi	r18, 0x1A	; 26
     906:	31 05       	cpc	r19, r1
     908:	2c f0       	brlt	.+10     	; 0x914 <__pack_f+0x76>
     90a:	20 e0       	ldi	r18, 0x00	; 0
     90c:	30 e0       	ldi	r19, 0x00	; 0
     90e:	40 e0       	ldi	r20, 0x00	; 0
     910:	50 e0       	ldi	r21, 0x00	; 0
     912:	2a c0       	rjmp	.+84     	; 0x968 <__pack_f+0xca>
     914:	b8 01       	movw	r22, r16
     916:	a7 01       	movw	r20, r14
     918:	02 2e       	mov	r0, r18
     91a:	04 c0       	rjmp	.+8      	; 0x924 <__pack_f+0x86>
     91c:	76 95       	lsr	r23
     91e:	67 95       	ror	r22
     920:	57 95       	ror	r21
     922:	47 95       	ror	r20
     924:	0a 94       	dec	r0
     926:	d2 f7       	brpl	.-12     	; 0x91c <__pack_f+0x7e>
     928:	81 e0       	ldi	r24, 0x01	; 1
     92a:	90 e0       	ldi	r25, 0x00	; 0
     92c:	a0 e0       	ldi	r26, 0x00	; 0
     92e:	b0 e0       	ldi	r27, 0x00	; 0
     930:	04 c0       	rjmp	.+8      	; 0x93a <__pack_f+0x9c>
     932:	88 0f       	add	r24, r24
     934:	99 1f       	adc	r25, r25
     936:	aa 1f       	adc	r26, r26
     938:	bb 1f       	adc	r27, r27
     93a:	2a 95       	dec	r18
     93c:	d2 f7       	brpl	.-12     	; 0x932 <__pack_f+0x94>
     93e:	01 97       	sbiw	r24, 0x01	; 1
     940:	a1 09       	sbc	r26, r1
     942:	b1 09       	sbc	r27, r1
     944:	8e 21       	and	r24, r14
     946:	9f 21       	and	r25, r15
     948:	a0 23       	and	r26, r16
     94a:	b1 23       	and	r27, r17
     94c:	00 97       	sbiw	r24, 0x00	; 0
     94e:	a1 05       	cpc	r26, r1
     950:	b1 05       	cpc	r27, r1
     952:	21 f0       	breq	.+8      	; 0x95c <__pack_f+0xbe>
     954:	81 e0       	ldi	r24, 0x01	; 1
     956:	90 e0       	ldi	r25, 0x00	; 0
     958:	a0 e0       	ldi	r26, 0x00	; 0
     95a:	b0 e0       	ldi	r27, 0x00	; 0
     95c:	9a 01       	movw	r18, r20
     95e:	ab 01       	movw	r20, r22
     960:	28 2b       	or	r18, r24
     962:	39 2b       	or	r19, r25
     964:	4a 2b       	or	r20, r26
     966:	5b 2b       	or	r21, r27
     968:	da 01       	movw	r26, r20
     96a:	c9 01       	movw	r24, r18
     96c:	8f 77       	andi	r24, 0x7F	; 127
     96e:	90 70       	andi	r25, 0x00	; 0
     970:	a0 70       	andi	r26, 0x00	; 0
     972:	b0 70       	andi	r27, 0x00	; 0
     974:	80 34       	cpi	r24, 0x40	; 64
     976:	91 05       	cpc	r25, r1
     978:	a1 05       	cpc	r26, r1
     97a:	b1 05       	cpc	r27, r1
     97c:	39 f4       	brne	.+14     	; 0x98c <__pack_f+0xee>
     97e:	27 ff       	sbrs	r18, 7
     980:	09 c0       	rjmp	.+18     	; 0x994 <__pack_f+0xf6>
     982:	20 5c       	subi	r18, 0xC0	; 192
     984:	3f 4f       	sbci	r19, 0xFF	; 255
     986:	4f 4f       	sbci	r20, 0xFF	; 255
     988:	5f 4f       	sbci	r21, 0xFF	; 255
     98a:	04 c0       	rjmp	.+8      	; 0x994 <__pack_f+0xf6>
     98c:	21 5c       	subi	r18, 0xC1	; 193
     98e:	3f 4f       	sbci	r19, 0xFF	; 255
     990:	4f 4f       	sbci	r20, 0xFF	; 255
     992:	5f 4f       	sbci	r21, 0xFF	; 255
     994:	e0 e0       	ldi	r30, 0x00	; 0
     996:	f0 e0       	ldi	r31, 0x00	; 0
     998:	20 30       	cpi	r18, 0x00	; 0
     99a:	a0 e0       	ldi	r26, 0x00	; 0
     99c:	3a 07       	cpc	r19, r26
     99e:	a0 e0       	ldi	r26, 0x00	; 0
     9a0:	4a 07       	cpc	r20, r26
     9a2:	a0 e4       	ldi	r26, 0x40	; 64
     9a4:	5a 07       	cpc	r21, r26
     9a6:	10 f0       	brcs	.+4      	; 0x9ac <__pack_f+0x10e>
     9a8:	e1 e0       	ldi	r30, 0x01	; 1
     9aa:	f0 e0       	ldi	r31, 0x00	; 0
     9ac:	79 01       	movw	r14, r18
     9ae:	8a 01       	movw	r16, r20
     9b0:	27 c0       	rjmp	.+78     	; 0xa00 <__pack_f+0x162>
     9b2:	60 38       	cpi	r22, 0x80	; 128
     9b4:	71 05       	cpc	r23, r1
     9b6:	64 f5       	brge	.+88     	; 0xa10 <__pack_f+0x172>
     9b8:	fb 01       	movw	r30, r22
     9ba:	e1 58       	subi	r30, 0x81	; 129
     9bc:	ff 4f       	sbci	r31, 0xFF	; 255
     9be:	d8 01       	movw	r26, r16
     9c0:	c7 01       	movw	r24, r14
     9c2:	8f 77       	andi	r24, 0x7F	; 127
     9c4:	90 70       	andi	r25, 0x00	; 0
     9c6:	a0 70       	andi	r26, 0x00	; 0
     9c8:	b0 70       	andi	r27, 0x00	; 0
     9ca:	80 34       	cpi	r24, 0x40	; 64
     9cc:	91 05       	cpc	r25, r1
     9ce:	a1 05       	cpc	r26, r1
     9d0:	b1 05       	cpc	r27, r1
     9d2:	39 f4       	brne	.+14     	; 0x9e2 <__pack_f+0x144>
     9d4:	e7 fe       	sbrs	r14, 7
     9d6:	0d c0       	rjmp	.+26     	; 0x9f2 <__pack_f+0x154>
     9d8:	80 e4       	ldi	r24, 0x40	; 64
     9da:	90 e0       	ldi	r25, 0x00	; 0
     9dc:	a0 e0       	ldi	r26, 0x00	; 0
     9de:	b0 e0       	ldi	r27, 0x00	; 0
     9e0:	04 c0       	rjmp	.+8      	; 0x9ea <__pack_f+0x14c>
     9e2:	8f e3       	ldi	r24, 0x3F	; 63
     9e4:	90 e0       	ldi	r25, 0x00	; 0
     9e6:	a0 e0       	ldi	r26, 0x00	; 0
     9e8:	b0 e0       	ldi	r27, 0x00	; 0
     9ea:	e8 0e       	add	r14, r24
     9ec:	f9 1e       	adc	r15, r25
     9ee:	0a 1f       	adc	r16, r26
     9f0:	1b 1f       	adc	r17, r27
     9f2:	17 ff       	sbrs	r17, 7
     9f4:	05 c0       	rjmp	.+10     	; 0xa00 <__pack_f+0x162>
     9f6:	16 95       	lsr	r17
     9f8:	07 95       	ror	r16
     9fa:	f7 94       	ror	r15
     9fc:	e7 94       	ror	r14
     9fe:	31 96       	adiw	r30, 0x01	; 1
     a00:	87 e0       	ldi	r24, 0x07	; 7
     a02:	16 95       	lsr	r17
     a04:	07 95       	ror	r16
     a06:	f7 94       	ror	r15
     a08:	e7 94       	ror	r14
     a0a:	8a 95       	dec	r24
     a0c:	d1 f7       	brne	.-12     	; 0xa02 <__pack_f+0x164>
     a0e:	05 c0       	rjmp	.+10     	; 0xa1a <__pack_f+0x17c>
     a10:	ee 24       	eor	r14, r14
     a12:	ff 24       	eor	r15, r15
     a14:	87 01       	movw	r16, r14
     a16:	ef ef       	ldi	r30, 0xFF	; 255
     a18:	f0 e0       	ldi	r31, 0x00	; 0
     a1a:	6e 2f       	mov	r22, r30
     a1c:	67 95       	ror	r22
     a1e:	66 27       	eor	r22, r22
     a20:	67 95       	ror	r22
     a22:	90 2f       	mov	r25, r16
     a24:	9f 77       	andi	r25, 0x7F	; 127
     a26:	d7 94       	ror	r13
     a28:	dd 24       	eor	r13, r13
     a2a:	d7 94       	ror	r13
     a2c:	8e 2f       	mov	r24, r30
     a2e:	86 95       	lsr	r24
     a30:	49 2f       	mov	r20, r25
     a32:	46 2b       	or	r20, r22
     a34:	58 2f       	mov	r21, r24
     a36:	5d 29       	or	r21, r13
     a38:	b7 01       	movw	r22, r14
     a3a:	ca 01       	movw	r24, r20
     a3c:	1f 91       	pop	r17
     a3e:	0f 91       	pop	r16
     a40:	ff 90       	pop	r15
     a42:	ef 90       	pop	r14
     a44:	df 90       	pop	r13
     a46:	08 95       	ret

00000a48 <__unpack_f>:
     a48:	fc 01       	movw	r30, r24
     a4a:	db 01       	movw	r26, r22
     a4c:	40 81       	ld	r20, Z
     a4e:	51 81       	ldd	r21, Z+1	; 0x01
     a50:	22 81       	ldd	r18, Z+2	; 0x02
     a52:	62 2f       	mov	r22, r18
     a54:	6f 77       	andi	r22, 0x7F	; 127
     a56:	70 e0       	ldi	r23, 0x00	; 0
     a58:	22 1f       	adc	r18, r18
     a5a:	22 27       	eor	r18, r18
     a5c:	22 1f       	adc	r18, r18
     a5e:	93 81       	ldd	r25, Z+3	; 0x03
     a60:	89 2f       	mov	r24, r25
     a62:	88 0f       	add	r24, r24
     a64:	82 2b       	or	r24, r18
     a66:	28 2f       	mov	r18, r24
     a68:	30 e0       	ldi	r19, 0x00	; 0
     a6a:	99 1f       	adc	r25, r25
     a6c:	99 27       	eor	r25, r25
     a6e:	99 1f       	adc	r25, r25
     a70:	11 96       	adiw	r26, 0x01	; 1
     a72:	9c 93       	st	X, r25
     a74:	11 97       	sbiw	r26, 0x01	; 1
     a76:	21 15       	cp	r18, r1
     a78:	31 05       	cpc	r19, r1
     a7a:	a9 f5       	brne	.+106    	; 0xae6 <__unpack_f+0x9e>
     a7c:	41 15       	cp	r20, r1
     a7e:	51 05       	cpc	r21, r1
     a80:	61 05       	cpc	r22, r1
     a82:	71 05       	cpc	r23, r1
     a84:	11 f4       	brne	.+4      	; 0xa8a <__unpack_f+0x42>
     a86:	82 e0       	ldi	r24, 0x02	; 2
     a88:	37 c0       	rjmp	.+110    	; 0xaf8 <__unpack_f+0xb0>
     a8a:	82 e8       	ldi	r24, 0x82	; 130
     a8c:	9f ef       	ldi	r25, 0xFF	; 255
     a8e:	13 96       	adiw	r26, 0x03	; 3
     a90:	9c 93       	st	X, r25
     a92:	8e 93       	st	-X, r24
     a94:	12 97       	sbiw	r26, 0x02	; 2
     a96:	9a 01       	movw	r18, r20
     a98:	ab 01       	movw	r20, r22
     a9a:	67 e0       	ldi	r22, 0x07	; 7
     a9c:	22 0f       	add	r18, r18
     a9e:	33 1f       	adc	r19, r19
     aa0:	44 1f       	adc	r20, r20
     aa2:	55 1f       	adc	r21, r21
     aa4:	6a 95       	dec	r22
     aa6:	d1 f7       	brne	.-12     	; 0xa9c <__unpack_f+0x54>
     aa8:	83 e0       	ldi	r24, 0x03	; 3
     aaa:	8c 93       	st	X, r24
     aac:	0d c0       	rjmp	.+26     	; 0xac8 <__unpack_f+0x80>
     aae:	22 0f       	add	r18, r18
     ab0:	33 1f       	adc	r19, r19
     ab2:	44 1f       	adc	r20, r20
     ab4:	55 1f       	adc	r21, r21
     ab6:	12 96       	adiw	r26, 0x02	; 2
     ab8:	8d 91       	ld	r24, X+
     aba:	9c 91       	ld	r25, X
     abc:	13 97       	sbiw	r26, 0x03	; 3
     abe:	01 97       	sbiw	r24, 0x01	; 1
     ac0:	13 96       	adiw	r26, 0x03	; 3
     ac2:	9c 93       	st	X, r25
     ac4:	8e 93       	st	-X, r24
     ac6:	12 97       	sbiw	r26, 0x02	; 2
     ac8:	20 30       	cpi	r18, 0x00	; 0
     aca:	80 e0       	ldi	r24, 0x00	; 0
     acc:	38 07       	cpc	r19, r24
     ace:	80 e0       	ldi	r24, 0x00	; 0
     ad0:	48 07       	cpc	r20, r24
     ad2:	80 e4       	ldi	r24, 0x40	; 64
     ad4:	58 07       	cpc	r21, r24
     ad6:	58 f3       	brcs	.-42     	; 0xaae <__unpack_f+0x66>
     ad8:	14 96       	adiw	r26, 0x04	; 4
     ada:	2d 93       	st	X+, r18
     adc:	3d 93       	st	X+, r19
     ade:	4d 93       	st	X+, r20
     ae0:	5c 93       	st	X, r21
     ae2:	17 97       	sbiw	r26, 0x07	; 7
     ae4:	08 95       	ret
     ae6:	2f 3f       	cpi	r18, 0xFF	; 255
     ae8:	31 05       	cpc	r19, r1
     aea:	79 f4       	brne	.+30     	; 0xb0a <__unpack_f+0xc2>
     aec:	41 15       	cp	r20, r1
     aee:	51 05       	cpc	r21, r1
     af0:	61 05       	cpc	r22, r1
     af2:	71 05       	cpc	r23, r1
     af4:	19 f4       	brne	.+6      	; 0xafc <__unpack_f+0xb4>
     af6:	84 e0       	ldi	r24, 0x04	; 4
     af8:	8c 93       	st	X, r24
     afa:	08 95       	ret
     afc:	64 ff       	sbrs	r22, 4
     afe:	03 c0       	rjmp	.+6      	; 0xb06 <__unpack_f+0xbe>
     b00:	81 e0       	ldi	r24, 0x01	; 1
     b02:	8c 93       	st	X, r24
     b04:	12 c0       	rjmp	.+36     	; 0xb2a <__unpack_f+0xe2>
     b06:	1c 92       	st	X, r1
     b08:	10 c0       	rjmp	.+32     	; 0xb2a <__unpack_f+0xe2>
     b0a:	2f 57       	subi	r18, 0x7F	; 127
     b0c:	30 40       	sbci	r19, 0x00	; 0
     b0e:	13 96       	adiw	r26, 0x03	; 3
     b10:	3c 93       	st	X, r19
     b12:	2e 93       	st	-X, r18
     b14:	12 97       	sbiw	r26, 0x02	; 2
     b16:	83 e0       	ldi	r24, 0x03	; 3
     b18:	8c 93       	st	X, r24
     b1a:	87 e0       	ldi	r24, 0x07	; 7
     b1c:	44 0f       	add	r20, r20
     b1e:	55 1f       	adc	r21, r21
     b20:	66 1f       	adc	r22, r22
     b22:	77 1f       	adc	r23, r23
     b24:	8a 95       	dec	r24
     b26:	d1 f7       	brne	.-12     	; 0xb1c <__unpack_f+0xd4>
     b28:	70 64       	ori	r23, 0x40	; 64
     b2a:	14 96       	adiw	r26, 0x04	; 4
     b2c:	4d 93       	st	X+, r20
     b2e:	5d 93       	st	X+, r21
     b30:	6d 93       	st	X+, r22
     b32:	7c 93       	st	X, r23
     b34:	17 97       	sbiw	r26, 0x07	; 7
     b36:	08 95       	ret

00000b38 <__fpcmp_parts_f>:
     b38:	1f 93       	push	r17
     b3a:	dc 01       	movw	r26, r24
     b3c:	fb 01       	movw	r30, r22
     b3e:	9c 91       	ld	r25, X
     b40:	92 30       	cpi	r25, 0x02	; 2
     b42:	08 f4       	brcc	.+2      	; 0xb46 <__fpcmp_parts_f+0xe>
     b44:	47 c0       	rjmp	.+142    	; 0xbd4 <__fpcmp_parts_f+0x9c>
     b46:	80 81       	ld	r24, Z
     b48:	82 30       	cpi	r24, 0x02	; 2
     b4a:	08 f4       	brcc	.+2      	; 0xb4e <__fpcmp_parts_f+0x16>
     b4c:	43 c0       	rjmp	.+134    	; 0xbd4 <__fpcmp_parts_f+0x9c>
     b4e:	94 30       	cpi	r25, 0x04	; 4
     b50:	51 f4       	brne	.+20     	; 0xb66 <__fpcmp_parts_f+0x2e>
     b52:	11 96       	adiw	r26, 0x01	; 1
     b54:	1c 91       	ld	r17, X
     b56:	84 30       	cpi	r24, 0x04	; 4
     b58:	99 f5       	brne	.+102    	; 0xbc0 <__fpcmp_parts_f+0x88>
     b5a:	81 81       	ldd	r24, Z+1	; 0x01
     b5c:	68 2f       	mov	r22, r24
     b5e:	70 e0       	ldi	r23, 0x00	; 0
     b60:	61 1b       	sub	r22, r17
     b62:	71 09       	sbc	r23, r1
     b64:	3f c0       	rjmp	.+126    	; 0xbe4 <__fpcmp_parts_f+0xac>
     b66:	84 30       	cpi	r24, 0x04	; 4
     b68:	21 f0       	breq	.+8      	; 0xb72 <__fpcmp_parts_f+0x3a>
     b6a:	92 30       	cpi	r25, 0x02	; 2
     b6c:	31 f4       	brne	.+12     	; 0xb7a <__fpcmp_parts_f+0x42>
     b6e:	82 30       	cpi	r24, 0x02	; 2
     b70:	b9 f1       	breq	.+110    	; 0xbe0 <__fpcmp_parts_f+0xa8>
     b72:	81 81       	ldd	r24, Z+1	; 0x01
     b74:	88 23       	and	r24, r24
     b76:	89 f1       	breq	.+98     	; 0xbda <__fpcmp_parts_f+0xa2>
     b78:	2d c0       	rjmp	.+90     	; 0xbd4 <__fpcmp_parts_f+0x9c>
     b7a:	11 96       	adiw	r26, 0x01	; 1
     b7c:	1c 91       	ld	r17, X
     b7e:	11 97       	sbiw	r26, 0x01	; 1
     b80:	82 30       	cpi	r24, 0x02	; 2
     b82:	f1 f0       	breq	.+60     	; 0xbc0 <__fpcmp_parts_f+0x88>
     b84:	81 81       	ldd	r24, Z+1	; 0x01
     b86:	18 17       	cp	r17, r24
     b88:	d9 f4       	brne	.+54     	; 0xbc0 <__fpcmp_parts_f+0x88>
     b8a:	12 96       	adiw	r26, 0x02	; 2
     b8c:	2d 91       	ld	r18, X+
     b8e:	3c 91       	ld	r19, X
     b90:	13 97       	sbiw	r26, 0x03	; 3
     b92:	82 81       	ldd	r24, Z+2	; 0x02
     b94:	93 81       	ldd	r25, Z+3	; 0x03
     b96:	82 17       	cp	r24, r18
     b98:	93 07       	cpc	r25, r19
     b9a:	94 f0       	brlt	.+36     	; 0xbc0 <__fpcmp_parts_f+0x88>
     b9c:	28 17       	cp	r18, r24
     b9e:	39 07       	cpc	r19, r25
     ba0:	bc f0       	brlt	.+46     	; 0xbd0 <__fpcmp_parts_f+0x98>
     ba2:	14 96       	adiw	r26, 0x04	; 4
     ba4:	8d 91       	ld	r24, X+
     ba6:	9d 91       	ld	r25, X+
     ba8:	0d 90       	ld	r0, X+
     baa:	bc 91       	ld	r27, X
     bac:	a0 2d       	mov	r26, r0
     bae:	24 81       	ldd	r18, Z+4	; 0x04
     bb0:	35 81       	ldd	r19, Z+5	; 0x05
     bb2:	46 81       	ldd	r20, Z+6	; 0x06
     bb4:	57 81       	ldd	r21, Z+7	; 0x07
     bb6:	28 17       	cp	r18, r24
     bb8:	39 07       	cpc	r19, r25
     bba:	4a 07       	cpc	r20, r26
     bbc:	5b 07       	cpc	r21, r27
     bbe:	18 f4       	brcc	.+6      	; 0xbc6 <__fpcmp_parts_f+0x8e>
     bc0:	11 23       	and	r17, r17
     bc2:	41 f0       	breq	.+16     	; 0xbd4 <__fpcmp_parts_f+0x9c>
     bc4:	0a c0       	rjmp	.+20     	; 0xbda <__fpcmp_parts_f+0xa2>
     bc6:	82 17       	cp	r24, r18
     bc8:	93 07       	cpc	r25, r19
     bca:	a4 07       	cpc	r26, r20
     bcc:	b5 07       	cpc	r27, r21
     bce:	40 f4       	brcc	.+16     	; 0xbe0 <__fpcmp_parts_f+0xa8>
     bd0:	11 23       	and	r17, r17
     bd2:	19 f0       	breq	.+6      	; 0xbda <__fpcmp_parts_f+0xa2>
     bd4:	61 e0       	ldi	r22, 0x01	; 1
     bd6:	70 e0       	ldi	r23, 0x00	; 0
     bd8:	05 c0       	rjmp	.+10     	; 0xbe4 <__fpcmp_parts_f+0xac>
     bda:	6f ef       	ldi	r22, 0xFF	; 255
     bdc:	7f ef       	ldi	r23, 0xFF	; 255
     bde:	02 c0       	rjmp	.+4      	; 0xbe4 <__fpcmp_parts_f+0xac>
     be0:	60 e0       	ldi	r22, 0x00	; 0
     be2:	70 e0       	ldi	r23, 0x00	; 0
     be4:	cb 01       	movw	r24, r22
     be6:	1f 91       	pop	r17
     be8:	08 95       	ret

00000bea <__vector_4>:
     bea:	1f 92       	push	r1
     bec:	0f 92       	push	r0
     bee:	0f b6       	in	r0, 0x3f	; 63
     bf0:	0f 92       	push	r0
     bf2:	11 24       	eor	r1, r1
     bf4:	2f 93       	push	r18
     bf6:	3f 93       	push	r19
     bf8:	4f 93       	push	r20
     bfa:	5f 93       	push	r21
     bfc:	6f 93       	push	r22
     bfe:	7f 93       	push	r23
     c00:	8f 93       	push	r24
     c02:	9f 93       	push	r25
     c04:	af 93       	push	r26
     c06:	bf 93       	push	r27
     c08:	ef 93       	push	r30
     c0a:	ff 93       	push	r31
     c0c:	e0 91 4b 06 	lds	r30, 0x064B
     c10:	f0 91 4c 06 	lds	r31, 0x064C
     c14:	09 95       	icall
     c16:	ff 91       	pop	r31
     c18:	ef 91       	pop	r30
     c1a:	bf 91       	pop	r27
     c1c:	af 91       	pop	r26
     c1e:	9f 91       	pop	r25
     c20:	8f 91       	pop	r24
     c22:	7f 91       	pop	r23
     c24:	6f 91       	pop	r22
     c26:	5f 91       	pop	r21
     c28:	4f 91       	pop	r20
     c2a:	3f 91       	pop	r19
     c2c:	2f 91       	pop	r18
     c2e:	0f 90       	pop	r0
     c30:	0f be       	out	0x3f, r0	; 63
     c32:	0f 90       	pop	r0
     c34:	1f 90       	pop	r1
     c36:	18 95       	reti

00000c38 <__vector_5>:
     c38:	1f 92       	push	r1
     c3a:	0f 92       	push	r0
     c3c:	0f b6       	in	r0, 0x3f	; 63
     c3e:	0f 92       	push	r0
     c40:	11 24       	eor	r1, r1
     c42:	2f 93       	push	r18
     c44:	3f 93       	push	r19
     c46:	4f 93       	push	r20
     c48:	5f 93       	push	r21
     c4a:	6f 93       	push	r22
     c4c:	7f 93       	push	r23
     c4e:	8f 93       	push	r24
     c50:	9f 93       	push	r25
     c52:	af 93       	push	r26
     c54:	bf 93       	push	r27
     c56:	ef 93       	push	r30
     c58:	ff 93       	push	r31
     c5a:	e0 91 4b 06 	lds	r30, 0x064B
     c5e:	f0 91 4c 06 	lds	r31, 0x064C
     c62:	09 95       	icall
     c64:	ff 91       	pop	r31
     c66:	ef 91       	pop	r30
     c68:	bf 91       	pop	r27
     c6a:	af 91       	pop	r26
     c6c:	9f 91       	pop	r25
     c6e:	8f 91       	pop	r24
     c70:	7f 91       	pop	r23
     c72:	6f 91       	pop	r22
     c74:	5f 91       	pop	r21
     c76:	4f 91       	pop	r20
     c78:	3f 91       	pop	r19
     c7a:	2f 91       	pop	r18
     c7c:	0f 90       	pop	r0
     c7e:	0f be       	out	0x3f, r0	; 63
     c80:	0f 90       	pop	r0
     c82:	1f 90       	pop	r1
     c84:	18 95       	reti

00000c86 <__vector_11>:
     c86:	1f 92       	push	r1
     c88:	0f 92       	push	r0
     c8a:	0f b6       	in	r0, 0x3f	; 63
     c8c:	0f 92       	push	r0
     c8e:	11 24       	eor	r1, r1
     c90:	2f 93       	push	r18
     c92:	3f 93       	push	r19
     c94:	4f 93       	push	r20
     c96:	5f 93       	push	r21
     c98:	6f 93       	push	r22
     c9a:	7f 93       	push	r23
     c9c:	8f 93       	push	r24
     c9e:	9f 93       	push	r25
     ca0:	af 93       	push	r26
     ca2:	bf 93       	push	r27
     ca4:	ef 93       	push	r30
     ca6:	ff 93       	push	r31
     ca8:	e0 91 4d 06 	lds	r30, 0x064D
     cac:	f0 91 4e 06 	lds	r31, 0x064E
     cb0:	09 95       	icall
     cb2:	ff 91       	pop	r31
     cb4:	ef 91       	pop	r30
     cb6:	bf 91       	pop	r27
     cb8:	af 91       	pop	r26
     cba:	9f 91       	pop	r25
     cbc:	8f 91       	pop	r24
     cbe:	7f 91       	pop	r23
     cc0:	6f 91       	pop	r22
     cc2:	5f 91       	pop	r21
     cc4:	4f 91       	pop	r20
     cc6:	3f 91       	pop	r19
     cc8:	2f 91       	pop	r18
     cca:	0f 90       	pop	r0
     ccc:	0f be       	out	0x3f, r0	; 63
     cce:	0f 90       	pop	r0
     cd0:	1f 90       	pop	r1
     cd2:	18 95       	reti

00000cd4 <__vector_10>:
     cd4:	1f 92       	push	r1
     cd6:	0f 92       	push	r0
     cd8:	0f b6       	in	r0, 0x3f	; 63
     cda:	0f 92       	push	r0
     cdc:	11 24       	eor	r1, r1
     cde:	2f 93       	push	r18
     ce0:	3f 93       	push	r19
     ce2:	4f 93       	push	r20
     ce4:	5f 93       	push	r21
     ce6:	6f 93       	push	r22
     ce8:	7f 93       	push	r23
     cea:	8f 93       	push	r24
     cec:	9f 93       	push	r25
     cee:	af 93       	push	r26
     cf0:	bf 93       	push	r27
     cf2:	ef 93       	push	r30
     cf4:	ff 93       	push	r31
     cf6:	e0 91 4d 06 	lds	r30, 0x064D
     cfa:	f0 91 4e 06 	lds	r31, 0x064E
     cfe:	09 95       	icall
     d00:	ff 91       	pop	r31
     d02:	ef 91       	pop	r30
     d04:	bf 91       	pop	r27
     d06:	af 91       	pop	r26
     d08:	9f 91       	pop	r25
     d0a:	8f 91       	pop	r24
     d0c:	7f 91       	pop	r23
     d0e:	6f 91       	pop	r22
     d10:	5f 91       	pop	r21
     d12:	4f 91       	pop	r20
     d14:	3f 91       	pop	r19
     d16:	2f 91       	pop	r18
     d18:	0f 90       	pop	r0
     d1a:	0f be       	out	0x3f, r0	; 63
     d1c:	0f 90       	pop	r0
     d1e:	1f 90       	pop	r1
     d20:	18 95       	reti

00000d22 <MGIE_VidEnable>:
     d22:	8f b7       	in	r24, 0x3f	; 63
     d24:	80 68       	ori	r24, 0x80	; 128
     d26:	8f bf       	out	0x3f, r24	; 63
     d28:	08 95       	ret

00000d2a <MDIO_Error_State_SetPinDirection>:
     d2a:	38 2f       	mov	r19, r24
     d2c:	88 30       	cpi	r24, 0x08	; 8
     d2e:	08 f0       	brcs	.+2      	; 0xd32 <MDIO_Error_State_SetPinDirection+0x8>
     d30:	7a c0       	rjmp	.+244    	; 0xe26 <MDIO_Error_State_SetPinDirection+0xfc>
     d32:	61 30       	cpi	r22, 0x01	; 1
     d34:	29 f1       	breq	.+74     	; 0xd80 <MDIO_Error_State_SetPinDirection+0x56>
     d36:	61 30       	cpi	r22, 0x01	; 1
     d38:	38 f0       	brcs	.+14     	; 0xd48 <MDIO_Error_State_SetPinDirection+0x1e>
     d3a:	62 30       	cpi	r22, 0x02	; 2
     d3c:	09 f4       	brne	.+2      	; 0xd40 <MDIO_Error_State_SetPinDirection+0x16>
     d3e:	3c c0       	rjmp	.+120    	; 0xdb8 <MDIO_Error_State_SetPinDirection+0x8e>
     d40:	63 30       	cpi	r22, 0x03	; 3
     d42:	09 f0       	breq	.+2      	; 0xd46 <MDIO_Error_State_SetPinDirection+0x1c>
     d44:	70 c0       	rjmp	.+224    	; 0xe26 <MDIO_Error_State_SetPinDirection+0xfc>
     d46:	53 c0       	rjmp	.+166    	; 0xdee <MDIO_Error_State_SetPinDirection+0xc4>
     d48:	41 30       	cpi	r20, 0x01	; 1
     d4a:	59 f4       	brne	.+22     	; 0xd62 <MDIO_Error_State_SetPinDirection+0x38>
     d4c:	2a b3       	in	r18, 0x1a	; 26
     d4e:	81 e0       	ldi	r24, 0x01	; 1
     d50:	90 e0       	ldi	r25, 0x00	; 0
     d52:	02 c0       	rjmp	.+4      	; 0xd58 <MDIO_Error_State_SetPinDirection+0x2e>
     d54:	88 0f       	add	r24, r24
     d56:	99 1f       	adc	r25, r25
     d58:	3a 95       	dec	r19
     d5a:	e2 f7       	brpl	.-8      	; 0xd54 <MDIO_Error_State_SetPinDirection+0x2a>
     d5c:	28 2b       	or	r18, r24
     d5e:	2a bb       	out	0x1a, r18	; 26
     d60:	60 c0       	rjmp	.+192    	; 0xe22 <MDIO_Error_State_SetPinDirection+0xf8>
     d62:	44 23       	and	r20, r20
     d64:	09 f0       	breq	.+2      	; 0xd68 <MDIO_Error_State_SetPinDirection+0x3e>
     d66:	5f c0       	rjmp	.+190    	; 0xe26 <MDIO_Error_State_SetPinDirection+0xfc>
     d68:	2a b3       	in	r18, 0x1a	; 26
     d6a:	81 e0       	ldi	r24, 0x01	; 1
     d6c:	90 e0       	ldi	r25, 0x00	; 0
     d6e:	02 c0       	rjmp	.+4      	; 0xd74 <MDIO_Error_State_SetPinDirection+0x4a>
     d70:	88 0f       	add	r24, r24
     d72:	99 1f       	adc	r25, r25
     d74:	3a 95       	dec	r19
     d76:	e2 f7       	brpl	.-8      	; 0xd70 <MDIO_Error_State_SetPinDirection+0x46>
     d78:	80 95       	com	r24
     d7a:	82 23       	and	r24, r18
     d7c:	8a bb       	out	0x1a, r24	; 26
     d7e:	51 c0       	rjmp	.+162    	; 0xe22 <MDIO_Error_State_SetPinDirection+0xf8>
     d80:	41 30       	cpi	r20, 0x01	; 1
     d82:	59 f4       	brne	.+22     	; 0xd9a <MDIO_Error_State_SetPinDirection+0x70>
     d84:	27 b3       	in	r18, 0x17	; 23
     d86:	81 e0       	ldi	r24, 0x01	; 1
     d88:	90 e0       	ldi	r25, 0x00	; 0
     d8a:	02 c0       	rjmp	.+4      	; 0xd90 <MDIO_Error_State_SetPinDirection+0x66>
     d8c:	88 0f       	add	r24, r24
     d8e:	99 1f       	adc	r25, r25
     d90:	3a 95       	dec	r19
     d92:	e2 f7       	brpl	.-8      	; 0xd8c <MDIO_Error_State_SetPinDirection+0x62>
     d94:	28 2b       	or	r18, r24
     d96:	27 bb       	out	0x17, r18	; 23
     d98:	44 c0       	rjmp	.+136    	; 0xe22 <MDIO_Error_State_SetPinDirection+0xf8>
     d9a:	44 23       	and	r20, r20
     d9c:	09 f0       	breq	.+2      	; 0xda0 <MDIO_Error_State_SetPinDirection+0x76>
     d9e:	43 c0       	rjmp	.+134    	; 0xe26 <MDIO_Error_State_SetPinDirection+0xfc>
     da0:	27 b3       	in	r18, 0x17	; 23
     da2:	81 e0       	ldi	r24, 0x01	; 1
     da4:	90 e0       	ldi	r25, 0x00	; 0
     da6:	02 c0       	rjmp	.+4      	; 0xdac <MDIO_Error_State_SetPinDirection+0x82>
     da8:	88 0f       	add	r24, r24
     daa:	99 1f       	adc	r25, r25
     dac:	3a 95       	dec	r19
     dae:	e2 f7       	brpl	.-8      	; 0xda8 <MDIO_Error_State_SetPinDirection+0x7e>
     db0:	80 95       	com	r24
     db2:	82 23       	and	r24, r18
     db4:	87 bb       	out	0x17, r24	; 23
     db6:	35 c0       	rjmp	.+106    	; 0xe22 <MDIO_Error_State_SetPinDirection+0xf8>
     db8:	41 30       	cpi	r20, 0x01	; 1
     dba:	59 f4       	brne	.+22     	; 0xdd2 <MDIO_Error_State_SetPinDirection+0xa8>
     dbc:	24 b3       	in	r18, 0x14	; 20
     dbe:	81 e0       	ldi	r24, 0x01	; 1
     dc0:	90 e0       	ldi	r25, 0x00	; 0
     dc2:	02 c0       	rjmp	.+4      	; 0xdc8 <MDIO_Error_State_SetPinDirection+0x9e>
     dc4:	88 0f       	add	r24, r24
     dc6:	99 1f       	adc	r25, r25
     dc8:	3a 95       	dec	r19
     dca:	e2 f7       	brpl	.-8      	; 0xdc4 <MDIO_Error_State_SetPinDirection+0x9a>
     dcc:	28 2b       	or	r18, r24
     dce:	24 bb       	out	0x14, r18	; 20
     dd0:	28 c0       	rjmp	.+80     	; 0xe22 <MDIO_Error_State_SetPinDirection+0xf8>
     dd2:	44 23       	and	r20, r20
     dd4:	41 f5       	brne	.+80     	; 0xe26 <MDIO_Error_State_SetPinDirection+0xfc>
     dd6:	24 b3       	in	r18, 0x14	; 20
     dd8:	81 e0       	ldi	r24, 0x01	; 1
     dda:	90 e0       	ldi	r25, 0x00	; 0
     ddc:	02 c0       	rjmp	.+4      	; 0xde2 <MDIO_Error_State_SetPinDirection+0xb8>
     dde:	88 0f       	add	r24, r24
     de0:	99 1f       	adc	r25, r25
     de2:	3a 95       	dec	r19
     de4:	e2 f7       	brpl	.-8      	; 0xdde <MDIO_Error_State_SetPinDirection+0xb4>
     de6:	80 95       	com	r24
     de8:	82 23       	and	r24, r18
     dea:	84 bb       	out	0x14, r24	; 20
     dec:	1a c0       	rjmp	.+52     	; 0xe22 <MDIO_Error_State_SetPinDirection+0xf8>
     dee:	41 30       	cpi	r20, 0x01	; 1
     df0:	59 f4       	brne	.+22     	; 0xe08 <MDIO_Error_State_SetPinDirection+0xde>
     df2:	21 b3       	in	r18, 0x11	; 17
     df4:	81 e0       	ldi	r24, 0x01	; 1
     df6:	90 e0       	ldi	r25, 0x00	; 0
     df8:	02 c0       	rjmp	.+4      	; 0xdfe <MDIO_Error_State_SetPinDirection+0xd4>
     dfa:	88 0f       	add	r24, r24
     dfc:	99 1f       	adc	r25, r25
     dfe:	3a 95       	dec	r19
     e00:	e2 f7       	brpl	.-8      	; 0xdfa <MDIO_Error_State_SetPinDirection+0xd0>
     e02:	28 2b       	or	r18, r24
     e04:	21 bb       	out	0x11, r18	; 17
     e06:	0d c0       	rjmp	.+26     	; 0xe22 <MDIO_Error_State_SetPinDirection+0xf8>
     e08:	44 23       	and	r20, r20
     e0a:	69 f4       	brne	.+26     	; 0xe26 <MDIO_Error_State_SetPinDirection+0xfc>
     e0c:	21 b3       	in	r18, 0x11	; 17
     e0e:	81 e0       	ldi	r24, 0x01	; 1
     e10:	90 e0       	ldi	r25, 0x00	; 0
     e12:	02 c0       	rjmp	.+4      	; 0xe18 <MDIO_Error_State_SetPinDirection+0xee>
     e14:	88 0f       	add	r24, r24
     e16:	99 1f       	adc	r25, r25
     e18:	3a 95       	dec	r19
     e1a:	e2 f7       	brpl	.-8      	; 0xe14 <MDIO_Error_State_SetPinDirection+0xea>
     e1c:	80 95       	com	r24
     e1e:	82 23       	and	r24, r18
     e20:	81 bb       	out	0x11, r24	; 17
     e22:	81 e0       	ldi	r24, 0x01	; 1
     e24:	08 95       	ret
     e26:	80 e0       	ldi	r24, 0x00	; 0
     e28:	08 95       	ret

00000e2a <MDIO_Error_State_SetPinValue>:
     e2a:	38 2f       	mov	r19, r24
     e2c:	88 30       	cpi	r24, 0x08	; 8
     e2e:	08 f0       	brcs	.+2      	; 0xe32 <MDIO_Error_State_SetPinValue+0x8>
     e30:	7a c0       	rjmp	.+244    	; 0xf26 <MDIO_Error_State_SetPinValue+0xfc>
     e32:	61 30       	cpi	r22, 0x01	; 1
     e34:	29 f1       	breq	.+74     	; 0xe80 <MDIO_Error_State_SetPinValue+0x56>
     e36:	61 30       	cpi	r22, 0x01	; 1
     e38:	38 f0       	brcs	.+14     	; 0xe48 <MDIO_Error_State_SetPinValue+0x1e>
     e3a:	62 30       	cpi	r22, 0x02	; 2
     e3c:	09 f4       	brne	.+2      	; 0xe40 <MDIO_Error_State_SetPinValue+0x16>
     e3e:	3c c0       	rjmp	.+120    	; 0xeb8 <MDIO_Error_State_SetPinValue+0x8e>
     e40:	63 30       	cpi	r22, 0x03	; 3
     e42:	09 f0       	breq	.+2      	; 0xe46 <MDIO_Error_State_SetPinValue+0x1c>
     e44:	70 c0       	rjmp	.+224    	; 0xf26 <MDIO_Error_State_SetPinValue+0xfc>
     e46:	53 c0       	rjmp	.+166    	; 0xeee <MDIO_Error_State_SetPinValue+0xc4>
     e48:	41 30       	cpi	r20, 0x01	; 1
     e4a:	59 f4       	brne	.+22     	; 0xe62 <MDIO_Error_State_SetPinValue+0x38>
     e4c:	2b b3       	in	r18, 0x1b	; 27
     e4e:	81 e0       	ldi	r24, 0x01	; 1
     e50:	90 e0       	ldi	r25, 0x00	; 0
     e52:	02 c0       	rjmp	.+4      	; 0xe58 <MDIO_Error_State_SetPinValue+0x2e>
     e54:	88 0f       	add	r24, r24
     e56:	99 1f       	adc	r25, r25
     e58:	3a 95       	dec	r19
     e5a:	e2 f7       	brpl	.-8      	; 0xe54 <MDIO_Error_State_SetPinValue+0x2a>
     e5c:	28 2b       	or	r18, r24
     e5e:	2b bb       	out	0x1b, r18	; 27
     e60:	60 c0       	rjmp	.+192    	; 0xf22 <MDIO_Error_State_SetPinValue+0xf8>
     e62:	44 23       	and	r20, r20
     e64:	09 f0       	breq	.+2      	; 0xe68 <MDIO_Error_State_SetPinValue+0x3e>
     e66:	5f c0       	rjmp	.+190    	; 0xf26 <MDIO_Error_State_SetPinValue+0xfc>
     e68:	2b b3       	in	r18, 0x1b	; 27
     e6a:	81 e0       	ldi	r24, 0x01	; 1
     e6c:	90 e0       	ldi	r25, 0x00	; 0
     e6e:	02 c0       	rjmp	.+4      	; 0xe74 <MDIO_Error_State_SetPinValue+0x4a>
     e70:	88 0f       	add	r24, r24
     e72:	99 1f       	adc	r25, r25
     e74:	3a 95       	dec	r19
     e76:	e2 f7       	brpl	.-8      	; 0xe70 <MDIO_Error_State_SetPinValue+0x46>
     e78:	80 95       	com	r24
     e7a:	82 23       	and	r24, r18
     e7c:	8b bb       	out	0x1b, r24	; 27
     e7e:	51 c0       	rjmp	.+162    	; 0xf22 <MDIO_Error_State_SetPinValue+0xf8>
     e80:	41 30       	cpi	r20, 0x01	; 1
     e82:	59 f4       	brne	.+22     	; 0xe9a <MDIO_Error_State_SetPinValue+0x70>
     e84:	28 b3       	in	r18, 0x18	; 24
     e86:	81 e0       	ldi	r24, 0x01	; 1
     e88:	90 e0       	ldi	r25, 0x00	; 0
     e8a:	02 c0       	rjmp	.+4      	; 0xe90 <MDIO_Error_State_SetPinValue+0x66>
     e8c:	88 0f       	add	r24, r24
     e8e:	99 1f       	adc	r25, r25
     e90:	3a 95       	dec	r19
     e92:	e2 f7       	brpl	.-8      	; 0xe8c <MDIO_Error_State_SetPinValue+0x62>
     e94:	28 2b       	or	r18, r24
     e96:	28 bb       	out	0x18, r18	; 24
     e98:	44 c0       	rjmp	.+136    	; 0xf22 <MDIO_Error_State_SetPinValue+0xf8>
     e9a:	44 23       	and	r20, r20
     e9c:	09 f0       	breq	.+2      	; 0xea0 <MDIO_Error_State_SetPinValue+0x76>
     e9e:	43 c0       	rjmp	.+134    	; 0xf26 <MDIO_Error_State_SetPinValue+0xfc>
     ea0:	28 b3       	in	r18, 0x18	; 24
     ea2:	81 e0       	ldi	r24, 0x01	; 1
     ea4:	90 e0       	ldi	r25, 0x00	; 0
     ea6:	02 c0       	rjmp	.+4      	; 0xeac <MDIO_Error_State_SetPinValue+0x82>
     ea8:	88 0f       	add	r24, r24
     eaa:	99 1f       	adc	r25, r25
     eac:	3a 95       	dec	r19
     eae:	e2 f7       	brpl	.-8      	; 0xea8 <MDIO_Error_State_SetPinValue+0x7e>
     eb0:	80 95       	com	r24
     eb2:	82 23       	and	r24, r18
     eb4:	88 bb       	out	0x18, r24	; 24
     eb6:	35 c0       	rjmp	.+106    	; 0xf22 <MDIO_Error_State_SetPinValue+0xf8>
     eb8:	41 30       	cpi	r20, 0x01	; 1
     eba:	59 f4       	brne	.+22     	; 0xed2 <MDIO_Error_State_SetPinValue+0xa8>
     ebc:	25 b3       	in	r18, 0x15	; 21
     ebe:	81 e0       	ldi	r24, 0x01	; 1
     ec0:	90 e0       	ldi	r25, 0x00	; 0
     ec2:	02 c0       	rjmp	.+4      	; 0xec8 <MDIO_Error_State_SetPinValue+0x9e>
     ec4:	88 0f       	add	r24, r24
     ec6:	99 1f       	adc	r25, r25
     ec8:	3a 95       	dec	r19
     eca:	e2 f7       	brpl	.-8      	; 0xec4 <MDIO_Error_State_SetPinValue+0x9a>
     ecc:	28 2b       	or	r18, r24
     ece:	25 bb       	out	0x15, r18	; 21
     ed0:	28 c0       	rjmp	.+80     	; 0xf22 <MDIO_Error_State_SetPinValue+0xf8>
     ed2:	44 23       	and	r20, r20
     ed4:	41 f5       	brne	.+80     	; 0xf26 <MDIO_Error_State_SetPinValue+0xfc>
     ed6:	25 b3       	in	r18, 0x15	; 21
     ed8:	81 e0       	ldi	r24, 0x01	; 1
     eda:	90 e0       	ldi	r25, 0x00	; 0
     edc:	02 c0       	rjmp	.+4      	; 0xee2 <MDIO_Error_State_SetPinValue+0xb8>
     ede:	88 0f       	add	r24, r24
     ee0:	99 1f       	adc	r25, r25
     ee2:	3a 95       	dec	r19
     ee4:	e2 f7       	brpl	.-8      	; 0xede <MDIO_Error_State_SetPinValue+0xb4>
     ee6:	80 95       	com	r24
     ee8:	82 23       	and	r24, r18
     eea:	85 bb       	out	0x15, r24	; 21
     eec:	1a c0       	rjmp	.+52     	; 0xf22 <MDIO_Error_State_SetPinValue+0xf8>
     eee:	41 30       	cpi	r20, 0x01	; 1
     ef0:	59 f4       	brne	.+22     	; 0xf08 <MDIO_Error_State_SetPinValue+0xde>
     ef2:	22 b3       	in	r18, 0x12	; 18
     ef4:	81 e0       	ldi	r24, 0x01	; 1
     ef6:	90 e0       	ldi	r25, 0x00	; 0
     ef8:	02 c0       	rjmp	.+4      	; 0xefe <MDIO_Error_State_SetPinValue+0xd4>
     efa:	88 0f       	add	r24, r24
     efc:	99 1f       	adc	r25, r25
     efe:	3a 95       	dec	r19
     f00:	e2 f7       	brpl	.-8      	; 0xefa <MDIO_Error_State_SetPinValue+0xd0>
     f02:	28 2b       	or	r18, r24
     f04:	22 bb       	out	0x12, r18	; 18
     f06:	0d c0       	rjmp	.+26     	; 0xf22 <MDIO_Error_State_SetPinValue+0xf8>
     f08:	44 23       	and	r20, r20
     f0a:	69 f4       	brne	.+26     	; 0xf26 <MDIO_Error_State_SetPinValue+0xfc>
     f0c:	22 b3       	in	r18, 0x12	; 18
     f0e:	81 e0       	ldi	r24, 0x01	; 1
     f10:	90 e0       	ldi	r25, 0x00	; 0
     f12:	02 c0       	rjmp	.+4      	; 0xf18 <MDIO_Error_State_SetPinValue+0xee>
     f14:	88 0f       	add	r24, r24
     f16:	99 1f       	adc	r25, r25
     f18:	3a 95       	dec	r19
     f1a:	e2 f7       	brpl	.-8      	; 0xf14 <MDIO_Error_State_SetPinValue+0xea>
     f1c:	80 95       	com	r24
     f1e:	82 23       	and	r24, r18
     f20:	82 bb       	out	0x12, r24	; 18
     f22:	81 e0       	ldi	r24, 0x01	; 1
     f24:	08 95       	ret
     f26:	80 e0       	ldi	r24, 0x00	; 0
     f28:	08 95       	ret

00000f2a <MDIO_Error_State_GetPinValue>:
     f2a:	28 2f       	mov	r18, r24
     f2c:	fa 01       	movw	r30, r20
     f2e:	88 30       	cpi	r24, 0x08	; 8
     f30:	e8 f4       	brcc	.+58     	; 0xf6c <MDIO_Error_State_GetPinValue+0x42>
     f32:	41 30       	cpi	r20, 0x01	; 1
     f34:	51 05       	cpc	r21, r1
     f36:	d1 f0       	breq	.+52     	; 0xf6c <MDIO_Error_State_GetPinValue+0x42>
     f38:	61 30       	cpi	r22, 0x01	; 1
     f3a:	49 f0       	breq	.+18     	; 0xf4e <MDIO_Error_State_GetPinValue+0x24>
     f3c:	61 30       	cpi	r22, 0x01	; 1
     f3e:	28 f0       	brcs	.+10     	; 0xf4a <MDIO_Error_State_GetPinValue+0x20>
     f40:	62 30       	cpi	r22, 0x02	; 2
     f42:	39 f0       	breq	.+14     	; 0xf52 <MDIO_Error_State_GetPinValue+0x28>
     f44:	63 30       	cpi	r22, 0x03	; 3
     f46:	91 f4       	brne	.+36     	; 0xf6c <MDIO_Error_State_GetPinValue+0x42>
     f48:	06 c0       	rjmp	.+12     	; 0xf56 <MDIO_Error_State_GetPinValue+0x2c>
     f4a:	89 b3       	in	r24, 0x19	; 25
     f4c:	05 c0       	rjmp	.+10     	; 0xf58 <MDIO_Error_State_GetPinValue+0x2e>
     f4e:	86 b3       	in	r24, 0x16	; 22
     f50:	03 c0       	rjmp	.+6      	; 0xf58 <MDIO_Error_State_GetPinValue+0x2e>
     f52:	83 b3       	in	r24, 0x13	; 19
     f54:	01 c0       	rjmp	.+2      	; 0xf58 <MDIO_Error_State_GetPinValue+0x2e>
     f56:	80 b3       	in	r24, 0x10	; 16
     f58:	90 e0       	ldi	r25, 0x00	; 0
     f5a:	02 c0       	rjmp	.+4      	; 0xf60 <MDIO_Error_State_GetPinValue+0x36>
     f5c:	95 95       	asr	r25
     f5e:	87 95       	ror	r24
     f60:	2a 95       	dec	r18
     f62:	e2 f7       	brpl	.-8      	; 0xf5c <MDIO_Error_State_GetPinValue+0x32>
     f64:	81 70       	andi	r24, 0x01	; 1
     f66:	80 83       	st	Z, r24
     f68:	81 e0       	ldi	r24, 0x01	; 1
     f6a:	08 95       	ret
     f6c:	80 e0       	ldi	r24, 0x00	; 0
     f6e:	08 95       	ret

00000f70 <MDIO_Error_State_SetNippleValue>:
     f70:	98 2f       	mov	r25, r24
     f72:	85 30       	cpi	r24, 0x05	; 5
     f74:	08 f0       	brcs	.+2      	; 0xf78 <MDIO_Error_State_SetNippleValue+0x8>
     f76:	47 c0       	rjmp	.+142    	; 0x1006 <MDIO_Error_State_SetNippleValue+0x96>
     f78:	61 30       	cpi	r22, 0x01	; 1
     f7a:	b9 f0       	breq	.+46     	; 0xfaa <MDIO_Error_State_SetNippleValue+0x3a>
     f7c:	61 30       	cpi	r22, 0x01	; 1
     f7e:	30 f0       	brcs	.+12     	; 0xf8c <MDIO_Error_State_SetNippleValue+0x1c>
     f80:	62 30       	cpi	r22, 0x02	; 2
     f82:	11 f1       	breq	.+68     	; 0xfc8 <MDIO_Error_State_SetNippleValue+0x58>
     f84:	63 30       	cpi	r22, 0x03	; 3
     f86:	09 f0       	breq	.+2      	; 0xf8a <MDIO_Error_State_SetNippleValue+0x1a>
     f88:	3e c0       	rjmp	.+124    	; 0x1006 <MDIO_Error_State_SetNippleValue+0x96>
     f8a:	2d c0       	rjmp	.+90     	; 0xfe6 <MDIO_Error_State_SetNippleValue+0x76>
     f8c:	8b b3       	in	r24, 0x1b	; 27
     f8e:	2f e0       	ldi	r18, 0x0F	; 15
     f90:	30 e0       	ldi	r19, 0x00	; 0
     f92:	02 c0       	rjmp	.+4      	; 0xf98 <MDIO_Error_State_SetNippleValue+0x28>
     f94:	22 0f       	add	r18, r18
     f96:	33 1f       	adc	r19, r19
     f98:	9a 95       	dec	r25
     f9a:	e2 f7       	brpl	.-8      	; 0xf94 <MDIO_Error_State_SetNippleValue+0x24>
     f9c:	20 95       	com	r18
     f9e:	28 23       	and	r18, r24
     fa0:	2b bb       	out	0x1b, r18	; 27
     fa2:	8b b3       	in	r24, 0x1b	; 27
     fa4:	84 2b       	or	r24, r20
     fa6:	8b bb       	out	0x1b, r24	; 27
     fa8:	2c c0       	rjmp	.+88     	; 0x1002 <MDIO_Error_State_SetNippleValue+0x92>
     faa:	88 b3       	in	r24, 0x18	; 24
     fac:	2f e0       	ldi	r18, 0x0F	; 15
     fae:	30 e0       	ldi	r19, 0x00	; 0
     fb0:	02 c0       	rjmp	.+4      	; 0xfb6 <MDIO_Error_State_SetNippleValue+0x46>
     fb2:	22 0f       	add	r18, r18
     fb4:	33 1f       	adc	r19, r19
     fb6:	9a 95       	dec	r25
     fb8:	e2 f7       	brpl	.-8      	; 0xfb2 <MDIO_Error_State_SetNippleValue+0x42>
     fba:	20 95       	com	r18
     fbc:	28 23       	and	r18, r24
     fbe:	28 bb       	out	0x18, r18	; 24
     fc0:	88 b3       	in	r24, 0x18	; 24
     fc2:	84 2b       	or	r24, r20
     fc4:	88 bb       	out	0x18, r24	; 24
     fc6:	1d c0       	rjmp	.+58     	; 0x1002 <MDIO_Error_State_SetNippleValue+0x92>
     fc8:	85 b3       	in	r24, 0x15	; 21
     fca:	2f e0       	ldi	r18, 0x0F	; 15
     fcc:	30 e0       	ldi	r19, 0x00	; 0
     fce:	02 c0       	rjmp	.+4      	; 0xfd4 <MDIO_Error_State_SetNippleValue+0x64>
     fd0:	22 0f       	add	r18, r18
     fd2:	33 1f       	adc	r19, r19
     fd4:	9a 95       	dec	r25
     fd6:	e2 f7       	brpl	.-8      	; 0xfd0 <MDIO_Error_State_SetNippleValue+0x60>
     fd8:	20 95       	com	r18
     fda:	28 23       	and	r18, r24
     fdc:	25 bb       	out	0x15, r18	; 21
     fde:	85 b3       	in	r24, 0x15	; 21
     fe0:	84 2b       	or	r24, r20
     fe2:	85 bb       	out	0x15, r24	; 21
     fe4:	0e c0       	rjmp	.+28     	; 0x1002 <MDIO_Error_State_SetNippleValue+0x92>
     fe6:	82 b3       	in	r24, 0x12	; 18
     fe8:	2f e0       	ldi	r18, 0x0F	; 15
     fea:	30 e0       	ldi	r19, 0x00	; 0
     fec:	02 c0       	rjmp	.+4      	; 0xff2 <MDIO_Error_State_SetNippleValue+0x82>
     fee:	22 0f       	add	r18, r18
     ff0:	33 1f       	adc	r19, r19
     ff2:	9a 95       	dec	r25
     ff4:	e2 f7       	brpl	.-8      	; 0xfee <MDIO_Error_State_SetNippleValue+0x7e>
     ff6:	20 95       	com	r18
     ff8:	28 23       	and	r18, r24
     ffa:	22 bb       	out	0x12, r18	; 18
     ffc:	82 b3       	in	r24, 0x12	; 18
     ffe:	84 2b       	or	r24, r20
    1000:	82 bb       	out	0x12, r24	; 18
    1002:	81 e0       	ldi	r24, 0x01	; 1
    1004:	08 95       	ret
    1006:	80 e0       	ldi	r24, 0x00	; 0
    1008:	08 95       	ret

0000100a <MADC_VidInit>:
    100a:	3e 9a       	sbi	0x07, 6	; 7
    100c:	3f 98       	cbi	0x07, 7	; 7
    100e:	86 b1       	in	r24, 0x06	; 6
    1010:	88 7f       	andi	r24, 0xF8	; 248
    1012:	86 b9       	out	0x06, r24	; 6
    1014:	86 b1       	in	r24, 0x06	; 6
    1016:	87 60       	ori	r24, 0x07	; 7
    1018:	86 b9       	out	0x06, r24	; 6
    101a:	3d 98       	cbi	0x07, 5	; 7
    101c:	37 9a       	sbi	0x06, 7	; 6
    101e:	08 95       	ret

00001020 <MADC_VidADCInterruptEnable>:
    1020:	33 9a       	sbi	0x06, 3	; 6
    1022:	08 95       	ret

00001024 <MADC_u16ADC_StartConversion_With_Interrupt>:
    1024:	97 b1       	in	r25, 0x07	; 7
    1026:	90 7e       	andi	r25, 0xE0	; 224
    1028:	97 b9       	out	0x07, r25	; 7
    102a:	97 b1       	in	r25, 0x07	; 7
    102c:	87 70       	andi	r24, 0x07	; 7
    102e:	89 2b       	or	r24, r25
    1030:	87 b9       	out	0x07, r24	; 7
    1032:	36 9a       	sbi	0x06, 6	; 6
    1034:	08 95       	ret

00001036 <MADC_u16ADCRead>:
    1036:	24 b1       	in	r18, 0x04	; 4
    1038:	35 b1       	in	r19, 0x05	; 5
    103a:	c9 01       	movw	r24, r18
    103c:	08 95       	ret

0000103e <MADC_VidSetCallBack>:
    103e:	90 93 50 06 	sts	0x0650, r25
    1042:	80 93 4f 06 	sts	0x064F, r24
    1046:	08 95       	ret

00001048 <__vector_16>:
    1048:	1f 92       	push	r1
    104a:	0f 92       	push	r0
    104c:	0f b6       	in	r0, 0x3f	; 63
    104e:	0f 92       	push	r0
    1050:	11 24       	eor	r1, r1
    1052:	2f 93       	push	r18
    1054:	3f 93       	push	r19
    1056:	4f 93       	push	r20
    1058:	5f 93       	push	r21
    105a:	6f 93       	push	r22
    105c:	7f 93       	push	r23
    105e:	8f 93       	push	r24
    1060:	9f 93       	push	r25
    1062:	af 93       	push	r26
    1064:	bf 93       	push	r27
    1066:	ef 93       	push	r30
    1068:	ff 93       	push	r31
    106a:	e0 91 4f 06 	lds	r30, 0x064F
    106e:	f0 91 50 06 	lds	r31, 0x0650
    1072:	09 95       	icall
    1074:	ff 91       	pop	r31
    1076:	ef 91       	pop	r30
    1078:	bf 91       	pop	r27
    107a:	af 91       	pop	r26
    107c:	9f 91       	pop	r25
    107e:	8f 91       	pop	r24
    1080:	7f 91       	pop	r23
    1082:	6f 91       	pop	r22
    1084:	5f 91       	pop	r21
    1086:	4f 91       	pop	r20
    1088:	3f 91       	pop	r19
    108a:	2f 91       	pop	r18
    108c:	0f 90       	pop	r0
    108e:	0f be       	out	0x3f, r0	; 63
    1090:	0f 90       	pop	r0
    1092:	1f 90       	pop	r1
    1094:	18 95       	reti

00001096 <HKPD_U8GetKeyPressed>:
    1096:	6f 92       	push	r6
    1098:	7f 92       	push	r7
    109a:	9f 92       	push	r9
    109c:	af 92       	push	r10
    109e:	bf 92       	push	r11
    10a0:	cf 92       	push	r12
    10a2:	df 92       	push	r13
    10a4:	ef 92       	push	r14
    10a6:	ff 92       	push	r15
    10a8:	0f 93       	push	r16
    10aa:	1f 93       	push	r17
    10ac:	df 93       	push	r29
    10ae:	cf 93       	push	r28
    10b0:	0f 92       	push	r0
    10b2:	cd b7       	in	r28, 0x3d	; 61
    10b4:	de b7       	in	r29, 0x3e	; 62
    10b6:	99 24       	eor	r9, r9
    10b8:	ee 24       	eor	r14, r14
    10ba:	ff 24       	eor	r15, r15
    10bc:	5e 01       	movw	r10, r28
    10be:	08 94       	sec
    10c0:	a1 1c       	adc	r10, r1
    10c2:	b1 1c       	adc	r11, r1
    10c4:	30 e2       	ldi	r19, 0x20	; 32
    10c6:	63 2e       	mov	r6, r19
    10c8:	3e e4       	ldi	r19, 0x4E	; 78
    10ca:	73 2e       	mov	r7, r19
    10cc:	22 e0       	ldi	r18, 0x02	; 2
    10ce:	c2 2e       	mov	r12, r18
    10d0:	ce 0c       	add	r12, r14
    10d2:	8c 2d       	mov	r24, r12
    10d4:	63 e0       	ldi	r22, 0x03	; 3
    10d6:	40 e0       	ldi	r20, 0x00	; 0
    10d8:	a8 de       	rcall	.-688    	; 0xe2a <MDIO_Error_State_SetPinValue>
    10da:	87 01       	movw	r16, r14
    10dc:	00 0f       	add	r16, r16
    10de:	11 1f       	adc	r17, r17
    10e0:	00 0f       	add	r16, r16
    10e2:	11 1f       	adc	r17, r17
    10e4:	00 54       	subi	r16, 0x40	; 64
    10e6:	1e 4f       	sbci	r17, 0xFE	; 254
    10e8:	84 e0       	ldi	r24, 0x04	; 4
    10ea:	d8 2e       	mov	r13, r24
    10ec:	8d 2d       	mov	r24, r13
    10ee:	61 e0       	ldi	r22, 0x01	; 1
    10f0:	a5 01       	movw	r20, r10
    10f2:	1b df       	rcall	.-458    	; 0xf2a <MDIO_Error_State_GetPinValue>
    10f4:	89 81       	ldd	r24, Y+1	; 0x01
    10f6:	88 23       	and	r24, r24
    10f8:	69 f4       	brne	.+26     	; 0x1114 <HKPD_U8GetKeyPressed+0x7e>
    10fa:	f8 01       	movw	r30, r16
    10fc:	90 80       	ld	r9, Z
    10fe:	04 c0       	rjmp	.+8      	; 0x1108 <HKPD_U8GetKeyPressed+0x72>
    1100:	8d 2d       	mov	r24, r13
    1102:	61 e0       	ldi	r22, 0x01	; 1
    1104:	a5 01       	movw	r20, r10
    1106:	11 df       	rcall	.-478    	; 0xf2a <MDIO_Error_State_GetPinValue>
    1108:	89 81       	ldd	r24, Y+1	; 0x01
    110a:	88 23       	and	r24, r24
    110c:	c9 f3       	breq	.-14     	; 0x1100 <HKPD_U8GetKeyPressed+0x6a>
    110e:	c3 01       	movw	r24, r6
    1110:	01 97       	sbiw	r24, 0x01	; 1
    1112:	f1 f7       	brne	.-4      	; 0x1110 <HKPD_U8GetKeyPressed+0x7a>
    1114:	d3 94       	inc	r13
    1116:	0f 5f       	subi	r16, 0xFF	; 255
    1118:	1f 4f       	sbci	r17, 0xFF	; 255
    111a:	f8 e0       	ldi	r31, 0x08	; 8
    111c:	df 16       	cp	r13, r31
    111e:	31 f7       	brne	.-52     	; 0x10ec <HKPD_U8GetKeyPressed+0x56>
    1120:	8c 2d       	mov	r24, r12
    1122:	63 e0       	ldi	r22, 0x03	; 3
    1124:	41 e0       	ldi	r20, 0x01	; 1
    1126:	81 de       	rcall	.-766    	; 0xe2a <MDIO_Error_State_SetPinValue>
    1128:	08 94       	sec
    112a:	e1 1c       	adc	r14, r1
    112c:	f1 1c       	adc	r15, r1
    112e:	84 e0       	ldi	r24, 0x04	; 4
    1130:	e8 16       	cp	r14, r24
    1132:	f1 04       	cpc	r15, r1
    1134:	59 f6       	brne	.-106    	; 0x10cc <HKPD_U8GetKeyPressed+0x36>
    1136:	89 2d       	mov	r24, r9
    1138:	0f 90       	pop	r0
    113a:	cf 91       	pop	r28
    113c:	df 91       	pop	r29
    113e:	1f 91       	pop	r17
    1140:	0f 91       	pop	r16
    1142:	ff 90       	pop	r15
    1144:	ef 90       	pop	r14
    1146:	df 90       	pop	r13
    1148:	cf 90       	pop	r12
    114a:	bf 90       	pop	r11
    114c:	af 90       	pop	r10
    114e:	9f 90       	pop	r9
    1150:	7f 90       	pop	r7
    1152:	6f 90       	pop	r6
    1154:	08 95       	ret

00001156 <HKPD_VidInit>:
    1156:	84 e0       	ldi	r24, 0x04	; 4
    1158:	61 e0       	ldi	r22, 0x01	; 1
    115a:	40 e0       	ldi	r20, 0x00	; 0
    115c:	e6 dd       	rcall	.-1076   	; 0xd2a <MDIO_Error_State_SetPinDirection>
    115e:	85 e0       	ldi	r24, 0x05	; 5
    1160:	61 e0       	ldi	r22, 0x01	; 1
    1162:	40 e0       	ldi	r20, 0x00	; 0
    1164:	e2 dd       	rcall	.-1084   	; 0xd2a <MDIO_Error_State_SetPinDirection>
    1166:	86 e0       	ldi	r24, 0x06	; 6
    1168:	61 e0       	ldi	r22, 0x01	; 1
    116a:	40 e0       	ldi	r20, 0x00	; 0
    116c:	de dd       	rcall	.-1092   	; 0xd2a <MDIO_Error_State_SetPinDirection>
    116e:	87 e0       	ldi	r24, 0x07	; 7
    1170:	61 e0       	ldi	r22, 0x01	; 1
    1172:	40 e0       	ldi	r20, 0x00	; 0
    1174:	da dd       	rcall	.-1100   	; 0xd2a <MDIO_Error_State_SetPinDirection>
    1176:	82 e0       	ldi	r24, 0x02	; 2
    1178:	63 e0       	ldi	r22, 0x03	; 3
    117a:	41 e0       	ldi	r20, 0x01	; 1
    117c:	d6 dd       	rcall	.-1108   	; 0xd2a <MDIO_Error_State_SetPinDirection>
    117e:	83 e0       	ldi	r24, 0x03	; 3
    1180:	63 e0       	ldi	r22, 0x03	; 3
    1182:	41 e0       	ldi	r20, 0x01	; 1
    1184:	d2 dd       	rcall	.-1116   	; 0xd2a <MDIO_Error_State_SetPinDirection>
    1186:	84 e0       	ldi	r24, 0x04	; 4
    1188:	63 e0       	ldi	r22, 0x03	; 3
    118a:	41 e0       	ldi	r20, 0x01	; 1
    118c:	ce dd       	rcall	.-1124   	; 0xd2a <MDIO_Error_State_SetPinDirection>
    118e:	85 e0       	ldi	r24, 0x05	; 5
    1190:	63 e0       	ldi	r22, 0x03	; 3
    1192:	41 e0       	ldi	r20, 0x01	; 1
    1194:	ca dd       	rcall	.-1132   	; 0xd2a <MDIO_Error_State_SetPinDirection>
    1196:	84 e0       	ldi	r24, 0x04	; 4
    1198:	61 e0       	ldi	r22, 0x01	; 1
    119a:	41 e0       	ldi	r20, 0x01	; 1
    119c:	46 de       	rcall	.-884    	; 0xe2a <MDIO_Error_State_SetPinValue>
    119e:	85 e0       	ldi	r24, 0x05	; 5
    11a0:	61 e0       	ldi	r22, 0x01	; 1
    11a2:	41 e0       	ldi	r20, 0x01	; 1
    11a4:	42 de       	rcall	.-892    	; 0xe2a <MDIO_Error_State_SetPinValue>
    11a6:	86 e0       	ldi	r24, 0x06	; 6
    11a8:	61 e0       	ldi	r22, 0x01	; 1
    11aa:	41 e0       	ldi	r20, 0x01	; 1
    11ac:	3e de       	rcall	.-900    	; 0xe2a <MDIO_Error_State_SetPinValue>
    11ae:	87 e0       	ldi	r24, 0x07	; 7
    11b0:	61 e0       	ldi	r22, 0x01	; 1
    11b2:	41 e0       	ldi	r20, 0x01	; 1
    11b4:	3a de       	rcall	.-908    	; 0xe2a <MDIO_Error_State_SetPinValue>
    11b6:	82 e0       	ldi	r24, 0x02	; 2
    11b8:	63 e0       	ldi	r22, 0x03	; 3
    11ba:	41 e0       	ldi	r20, 0x01	; 1
    11bc:	36 de       	rcall	.-916    	; 0xe2a <MDIO_Error_State_SetPinValue>
    11be:	83 e0       	ldi	r24, 0x03	; 3
    11c0:	63 e0       	ldi	r22, 0x03	; 3
    11c2:	41 e0       	ldi	r20, 0x01	; 1
    11c4:	32 de       	rcall	.-924    	; 0xe2a <MDIO_Error_State_SetPinValue>
    11c6:	84 e0       	ldi	r24, 0x04	; 4
    11c8:	63 e0       	ldi	r22, 0x03	; 3
    11ca:	41 e0       	ldi	r20, 0x01	; 1
    11cc:	2e de       	rcall	.-932    	; 0xe2a <MDIO_Error_State_SetPinValue>
    11ce:	85 e0       	ldi	r24, 0x05	; 5
    11d0:	63 e0       	ldi	r22, 0x03	; 3
    11d2:	41 e0       	ldi	r20, 0x01	; 1
    11d4:	2a ce       	rjmp	.-940    	; 0xe2a <MDIO_Error_State_SetPinValue>

000011d6 <HCLCD_VidWriteChar_4Bits>:
    11d6:	1f 93       	push	r17
    11d8:	18 2f       	mov	r17, r24
    11da:	81 e0       	ldi	r24, 0x01	; 1
    11dc:	60 e0       	ldi	r22, 0x00	; 0
    11de:	41 e0       	ldi	r20, 0x01	; 1
    11e0:	24 de       	rcall	.-952    	; 0xe2a <MDIO_Error_State_SetPinValue>
    11e2:	1f 70       	andi	r17, 0x0F	; 15
    11e4:	11 0f       	add	r17, r17
    11e6:	11 0f       	add	r17, r17
    11e8:	11 0f       	add	r17, r17
    11ea:	83 e0       	ldi	r24, 0x03	; 3
    11ec:	60 e0       	ldi	r22, 0x00	; 0
    11ee:	41 2f       	mov	r20, r17
    11f0:	bf de       	rcall	.-642    	; 0xf70 <MDIO_Error_State_SetNippleValue>
    11f2:	82 e0       	ldi	r24, 0x02	; 2
    11f4:	60 e0       	ldi	r22, 0x00	; 0
    11f6:	41 e0       	ldi	r20, 0x01	; 1
    11f8:	18 de       	rcall	.-976    	; 0xe2a <MDIO_Error_State_SetPinValue>
    11fa:	80 e4       	ldi	r24, 0x40	; 64
    11fc:	9c e9       	ldi	r25, 0x9C	; 156
    11fe:	01 97       	sbiw	r24, 0x01	; 1
    1200:	f1 f7       	brne	.-4      	; 0x11fe <HCLCD_VidWriteChar_4Bits+0x28>
    1202:	82 e0       	ldi	r24, 0x02	; 2
    1204:	60 e0       	ldi	r22, 0x00	; 0
    1206:	40 e0       	ldi	r20, 0x00	; 0
    1208:	10 de       	rcall	.-992    	; 0xe2a <MDIO_Error_State_SetPinValue>
    120a:	1f 91       	pop	r17
    120c:	08 95       	ret

0000120e <HCLCD_VidSendChar_4Bits>:
    120e:	1f 93       	push	r17
    1210:	18 2f       	mov	r17, r24
    1212:	82 95       	swap	r24
    1214:	8f 70       	andi	r24, 0x0F	; 15
    1216:	df df       	rcall	.-66     	; 0x11d6 <HCLCD_VidWriteChar_4Bits>
    1218:	81 2f       	mov	r24, r17
    121a:	dd df       	rcall	.-70     	; 0x11d6 <HCLCD_VidWriteChar_4Bits>
    121c:	1f 91       	pop	r17
    121e:	08 95       	ret

00001220 <HCLCD_VidWriteNumber_4Bits>:
    1220:	af 92       	push	r10
    1222:	bf 92       	push	r11
    1224:	cf 92       	push	r12
    1226:	df 92       	push	r13
    1228:	ef 92       	push	r14
    122a:	ff 92       	push	r15
    122c:	0f 93       	push	r16
    122e:	1f 93       	push	r17
    1230:	df 93       	push	r29
    1232:	cf 93       	push	r28
    1234:	cd b7       	in	r28, 0x3d	; 61
    1236:	de b7       	in	r29, 0x3e	; 62
    1238:	2c 97       	sbiw	r28, 0x0c	; 12
    123a:	0f b6       	in	r0, 0x3f	; 63
    123c:	f8 94       	cli
    123e:	de bf       	out	0x3e, r29	; 62
    1240:	0f be       	out	0x3f, r0	; 63
    1242:	cd bf       	out	0x3d, r28	; 61
    1244:	6b 01       	movw	r12, r22
    1246:	7c 01       	movw	r14, r24
    1248:	61 15       	cp	r22, r1
    124a:	71 05       	cpc	r23, r1
    124c:	81 05       	cpc	r24, r1
    124e:	91 05       	cpc	r25, r1
    1250:	d9 f1       	breq	.+118    	; 0x12c8 <HCLCD_VidWriteNumber_4Bits+0xa8>
    1252:	10 e0       	ldi	r17, 0x00	; 0
    1254:	5e 01       	movw	r10, r28
    1256:	08 94       	sec
    1258:	a1 1c       	adc	r10, r1
    125a:	b1 1c       	adc	r11, r1
    125c:	c5 01       	movw	r24, r10
    125e:	81 0f       	add	r24, r17
    1260:	91 1d       	adc	r25, r1
    1262:	9c 87       	std	Y+12, r25	; 0x0c
    1264:	8b 87       	std	Y+11, r24	; 0x0b
    1266:	c7 01       	movw	r24, r14
    1268:	b6 01       	movw	r22, r12
    126a:	2a e0       	ldi	r18, 0x0A	; 10
    126c:	30 e0       	ldi	r19, 0x00	; 0
    126e:	40 e0       	ldi	r20, 0x00	; 0
    1270:	50 e0       	ldi	r21, 0x00	; 0
    1272:	0e 94 10 14 	call	0x2820	; 0x2820 <__udivmodsi4>
    1276:	eb 85       	ldd	r30, Y+11	; 0x0b
    1278:	fc 85       	ldd	r31, Y+12	; 0x0c
    127a:	60 83       	st	Z, r22
    127c:	c7 01       	movw	r24, r14
    127e:	b6 01       	movw	r22, r12
    1280:	2a e0       	ldi	r18, 0x0A	; 10
    1282:	30 e0       	ldi	r19, 0x00	; 0
    1284:	40 e0       	ldi	r20, 0x00	; 0
    1286:	50 e0       	ldi	r21, 0x00	; 0
    1288:	0e 94 10 14 	call	0x2820	; 0x2820 <__udivmodsi4>
    128c:	c9 01       	movw	r24, r18
    128e:	da 01       	movw	r26, r20
    1290:	6c 01       	movw	r12, r24
    1292:	7d 01       	movw	r14, r26
    1294:	1f 5f       	subi	r17, 0xFF	; 255
    1296:	c1 14       	cp	r12, r1
    1298:	d1 04       	cpc	r13, r1
    129a:	e1 04       	cpc	r14, r1
    129c:	f1 04       	cpc	r15, r1
    129e:	f1 f6       	brne	.-68     	; 0x125c <HCLCD_VidWriteNumber_4Bits+0x3c>
    12a0:	01 2f       	mov	r16, r17
    12a2:	01 50       	subi	r16, 0x01	; 1
    12a4:	e0 2e       	mov	r14, r16
    12a6:	ff 24       	eor	r15, r15
    12a8:	e7 fc       	sbrc	r14, 7
    12aa:	f0 94       	com	r15
    12ac:	ea 0c       	add	r14, r10
    12ae:	fb 1c       	adc	r15, r11
    12b0:	08 c0       	rjmp	.+16     	; 0x12c2 <HCLCD_VidWriteNumber_4Bits+0xa2>
    12b2:	f7 01       	movw	r30, r14
    12b4:	80 81       	ld	r24, Z
    12b6:	80 5d       	subi	r24, 0xD0	; 208
    12b8:	aa df       	rcall	.-172    	; 0x120e <HCLCD_VidSendChar_4Bits>
    12ba:	01 50       	subi	r16, 0x01	; 1
    12bc:	08 94       	sec
    12be:	e1 08       	sbc	r14, r1
    12c0:	f1 08       	sbc	r15, r1
    12c2:	07 ff       	sbrs	r16, 7
    12c4:	f6 cf       	rjmp	.-20     	; 0x12b2 <HCLCD_VidWriteNumber_4Bits+0x92>
    12c6:	02 c0       	rjmp	.+4      	; 0x12cc <HCLCD_VidWriteNumber_4Bits+0xac>
    12c8:	80 e3       	ldi	r24, 0x30	; 48
    12ca:	a1 df       	rcall	.-190    	; 0x120e <HCLCD_VidSendChar_4Bits>
    12cc:	2c 96       	adiw	r28, 0x0c	; 12
    12ce:	0f b6       	in	r0, 0x3f	; 63
    12d0:	f8 94       	cli
    12d2:	de bf       	out	0x3e, r29	; 62
    12d4:	0f be       	out	0x3f, r0	; 63
    12d6:	cd bf       	out	0x3d, r28	; 61
    12d8:	cf 91       	pop	r28
    12da:	df 91       	pop	r29
    12dc:	1f 91       	pop	r17
    12de:	0f 91       	pop	r16
    12e0:	ff 90       	pop	r15
    12e2:	ef 90       	pop	r14
    12e4:	df 90       	pop	r13
    12e6:	cf 90       	pop	r12
    12e8:	bf 90       	pop	r11
    12ea:	af 90       	pop	r10
    12ec:	08 95       	ret

000012ee <HCLCD_VidWriteString_4Bits>:
    12ee:	1f 93       	push	r17
    12f0:	cf 93       	push	r28
    12f2:	df 93       	push	r29
    12f4:	ec 01       	movw	r28, r24
    12f6:	10 e0       	ldi	r17, 0x00	; 0
    12f8:	02 c0       	rjmp	.+4      	; 0x12fe <HCLCD_VidWriteString_4Bits+0x10>
    12fa:	89 df       	rcall	.-238    	; 0x120e <HCLCD_VidSendChar_4Bits>
    12fc:	1f 5f       	subi	r17, 0xFF	; 255
    12fe:	fe 01       	movw	r30, r28
    1300:	e1 0f       	add	r30, r17
    1302:	f1 1d       	adc	r31, r1
    1304:	80 81       	ld	r24, Z
    1306:	88 23       	and	r24, r24
    1308:	c1 f7       	brne	.-16     	; 0x12fa <HCLCD_VidWriteString_4Bits+0xc>
    130a:	df 91       	pop	r29
    130c:	cf 91       	pop	r28
    130e:	1f 91       	pop	r17
    1310:	08 95       	ret

00001312 <HCLCD_VidWriteCommand_4Bits>:
    1312:	1f 93       	push	r17
    1314:	18 2f       	mov	r17, r24
    1316:	81 e0       	ldi	r24, 0x01	; 1
    1318:	60 e0       	ldi	r22, 0x00	; 0
    131a:	40 e0       	ldi	r20, 0x00	; 0
    131c:	86 dd       	rcall	.-1268   	; 0xe2a <MDIO_Error_State_SetPinValue>
    131e:	1f 70       	andi	r17, 0x0F	; 15
    1320:	11 0f       	add	r17, r17
    1322:	11 0f       	add	r17, r17
    1324:	11 0f       	add	r17, r17
    1326:	83 e0       	ldi	r24, 0x03	; 3
    1328:	60 e0       	ldi	r22, 0x00	; 0
    132a:	41 2f       	mov	r20, r17
    132c:	21 de       	rcall	.-958    	; 0xf70 <MDIO_Error_State_SetNippleValue>
    132e:	82 e0       	ldi	r24, 0x02	; 2
    1330:	60 e0       	ldi	r22, 0x00	; 0
    1332:	41 e0       	ldi	r20, 0x01	; 1
    1334:	7a dd       	rcall	.-1292   	; 0xe2a <MDIO_Error_State_SetPinValue>
    1336:	80 ea       	ldi	r24, 0xA0	; 160
    1338:	9f e0       	ldi	r25, 0x0F	; 15
    133a:	01 97       	sbiw	r24, 0x01	; 1
    133c:	f1 f7       	brne	.-4      	; 0x133a <HCLCD_VidWriteCommand_4Bits+0x28>
    133e:	82 e0       	ldi	r24, 0x02	; 2
    1340:	60 e0       	ldi	r22, 0x00	; 0
    1342:	40 e0       	ldi	r20, 0x00	; 0
    1344:	72 dd       	rcall	.-1308   	; 0xe2a <MDIO_Error_State_SetPinValue>
    1346:	1f 91       	pop	r17
    1348:	08 95       	ret

0000134a <HCLCD_VidSetPosition_4BitsMode>:
    134a:	1f 93       	push	r17
    134c:	16 2f       	mov	r17, r22
    134e:	81 30       	cpi	r24, 0x01	; 1
    1350:	39 f4       	brne	.+14     	; 0x1360 <HCLCD_VidSetPosition_4BitsMode+0x16>
    1352:	60 31       	cpi	r22, 0x10	; 16
    1354:	70 f4       	brcc	.+28     	; 0x1372 <HCLCD_VidSetPosition_4BitsMode+0x28>
    1356:	88 e0       	ldi	r24, 0x08	; 8
    1358:	dc df       	rcall	.-72     	; 0x1312 <HCLCD_VidWriteCommand_4Bits>
    135a:	81 2f       	mov	r24, r17
    135c:	80 58       	subi	r24, 0x80	; 128
    135e:	08 c0       	rjmp	.+16     	; 0x1370 <HCLCD_VidSetPosition_4BitsMode+0x26>
    1360:	82 30       	cpi	r24, 0x02	; 2
    1362:	39 f4       	brne	.+14     	; 0x1372 <HCLCD_VidSetPosition_4BitsMode+0x28>
    1364:	60 31       	cpi	r22, 0x10	; 16
    1366:	28 f4       	brcc	.+10     	; 0x1372 <HCLCD_VidSetPosition_4BitsMode+0x28>
    1368:	8c e0       	ldi	r24, 0x0C	; 12
    136a:	d3 df       	rcall	.-90     	; 0x1312 <HCLCD_VidWriteCommand_4Bits>
    136c:	81 2f       	mov	r24, r17
    136e:	80 54       	subi	r24, 0x40	; 64
    1370:	d0 df       	rcall	.-96     	; 0x1312 <HCLCD_VidWriteCommand_4Bits>
    1372:	1f 91       	pop	r17
    1374:	08 95       	ret

00001376 <HCLCD_Vid4Bits_Init>:
    1376:	0f 93       	push	r16
    1378:	1f 93       	push	r17
    137a:	86 e0       	ldi	r24, 0x06	; 6
    137c:	60 e0       	ldi	r22, 0x00	; 0
    137e:	41 e0       	ldi	r20, 0x01	; 1
    1380:	d4 dc       	rcall	.-1624   	; 0xd2a <MDIO_Error_State_SetPinDirection>
    1382:	85 e0       	ldi	r24, 0x05	; 5
    1384:	60 e0       	ldi	r22, 0x00	; 0
    1386:	41 e0       	ldi	r20, 0x01	; 1
    1388:	d0 dc       	rcall	.-1632   	; 0xd2a <MDIO_Error_State_SetPinDirection>
    138a:	84 e0       	ldi	r24, 0x04	; 4
    138c:	60 e0       	ldi	r22, 0x00	; 0
    138e:	41 e0       	ldi	r20, 0x01	; 1
    1390:	cc dc       	rcall	.-1640   	; 0xd2a <MDIO_Error_State_SetPinDirection>
    1392:	83 e0       	ldi	r24, 0x03	; 3
    1394:	60 e0       	ldi	r22, 0x00	; 0
    1396:	41 e0       	ldi	r20, 0x01	; 1
    1398:	c8 dc       	rcall	.-1648   	; 0xd2a <MDIO_Error_State_SetPinDirection>
    139a:	81 e0       	ldi	r24, 0x01	; 1
    139c:	60 e0       	ldi	r22, 0x00	; 0
    139e:	41 e0       	ldi	r20, 0x01	; 1
    13a0:	c4 dc       	rcall	.-1656   	; 0xd2a <MDIO_Error_State_SetPinDirection>
    13a2:	82 e0       	ldi	r24, 0x02	; 2
    13a4:	60 e0       	ldi	r22, 0x00	; 0
    13a6:	41 e0       	ldi	r20, 0x01	; 1
    13a8:	c0 dc       	rcall	.-1664   	; 0xd2a <MDIO_Error_State_SetPinDirection>
    13aa:	80 e6       	ldi	r24, 0x60	; 96
    13ac:	9a ee       	ldi	r25, 0xEA	; 234
    13ae:	01 97       	sbiw	r24, 0x01	; 1
    13b0:	f1 f7       	brne	.-4      	; 0x13ae <HCLCD_Vid4Bits_Init+0x38>
    13b2:	82 e0       	ldi	r24, 0x02	; 2
    13b4:	ae df       	rcall	.-164    	; 0x1312 <HCLCD_VidWriteCommand_4Bits>
    13b6:	82 e0       	ldi	r24, 0x02	; 2
    13b8:	ac df       	rcall	.-168    	; 0x1312 <HCLCD_VidWriteCommand_4Bits>
    13ba:	88 e2       	ldi	r24, 0x28	; 40
    13bc:	aa df       	rcall	.-172    	; 0x1312 <HCLCD_VidWriteCommand_4Bits>
    13be:	00 ed       	ldi	r16, 0xD0	; 208
    13c0:	17 e0       	ldi	r17, 0x07	; 7
    13c2:	c8 01       	movw	r24, r16
    13c4:	01 97       	sbiw	r24, 0x01	; 1
    13c6:	f1 f7       	brne	.-4      	; 0x13c4 <HCLCD_Vid4Bits_Init+0x4e>
    13c8:	80 e0       	ldi	r24, 0x00	; 0
    13ca:	a3 df       	rcall	.-186    	; 0x1312 <HCLCD_VidWriteCommand_4Bits>
    13cc:	8c e0       	ldi	r24, 0x0C	; 12
    13ce:	a1 df       	rcall	.-190    	; 0x1312 <HCLCD_VidWriteCommand_4Bits>
    13d0:	c8 01       	movw	r24, r16
    13d2:	01 97       	sbiw	r24, 0x01	; 1
    13d4:	f1 f7       	brne	.-4      	; 0x13d2 <HCLCD_Vid4Bits_Init+0x5c>
    13d6:	80 e0       	ldi	r24, 0x00	; 0
    13d8:	9c df       	rcall	.-200    	; 0x1312 <HCLCD_VidWriteCommand_4Bits>
    13da:	81 e0       	ldi	r24, 0x01	; 1
    13dc:	9a df       	rcall	.-204    	; 0x1312 <HCLCD_VidWriteCommand_4Bits>
    13de:	80 ea       	ldi	r24, 0xA0	; 160
    13e0:	9f e0       	ldi	r25, 0x0F	; 15
    13e2:	01 97       	sbiw	r24, 0x01	; 1
    13e4:	f1 f7       	brne	.-4      	; 0x13e2 <HCLCD_Vid4Bits_Init+0x6c>
    13e6:	80 e0       	ldi	r24, 0x00	; 0
    13e8:	94 df       	rcall	.-216    	; 0x1312 <HCLCD_VidWriteCommand_4Bits>
    13ea:	86 e0       	ldi	r24, 0x06	; 6
    13ec:	92 df       	rcall	.-220    	; 0x1312 <HCLCD_VidWriteCommand_4Bits>
    13ee:	1f 91       	pop	r17
    13f0:	0f 91       	pop	r16
    13f2:	08 95       	ret

000013f4 <H_DcMotorPotStop>:
    13f4:	87 e0       	ldi	r24, 0x07	; 7
    13f6:	63 e0       	ldi	r22, 0x03	; 3
    13f8:	40 e0       	ldi	r20, 0x00	; 0
    13fa:	17 cd       	rjmp	.-1490   	; 0xe2a <MDIO_Error_State_SetPinValue>

000013fc <H_DcMotorPotStart>:
    13fc:	87 e0       	ldi	r24, 0x07	; 7
    13fe:	63 e0       	ldi	r22, 0x03	; 3
    1400:	41 e0       	ldi	r20, 0x01	; 1
    1402:	13 cd       	rjmp	.-1498   	; 0xe2a <MDIO_Error_State_SetPinValue>

00001404 <H_DcMotorPotInit>:
    1404:	87 e0       	ldi	r24, 0x07	; 7
    1406:	63 e0       	ldi	r22, 0x03	; 3
    1408:	41 e0       	ldi	r20, 0x01	; 1
    140a:	8f cc       	rjmp	.-1762   	; 0xd2a <MDIO_Error_State_SetPinDirection>

0000140c <H_DcMotorStop>:
    140c:	80 e0       	ldi	r24, 0x00	; 0
    140e:	61 e0       	ldi	r22, 0x01	; 1
    1410:	40 e0       	ldi	r20, 0x00	; 0
    1412:	0b cd       	rjmp	.-1514   	; 0xe2a <MDIO_Error_State_SetPinValue>

00001414 <H_DcMotorStart>:
    1414:	80 e0       	ldi	r24, 0x00	; 0
    1416:	61 e0       	ldi	r22, 0x01	; 1
    1418:	41 e0       	ldi	r20, 0x01	; 1
    141a:	07 cd       	rjmp	.-1522   	; 0xe2a <MDIO_Error_State_SetPinValue>

0000141c <H_DcMotorInit>:
    141c:	80 e0       	ldi	r24, 0x00	; 0
    141e:	61 e0       	ldi	r22, 0x01	; 1
    1420:	41 e0       	ldi	r20, 0x01	; 1
    1422:	83 cc       	rjmp	.-1786   	; 0xd2a <MDIO_Error_State_SetPinDirection>

00001424 <vPortFree>:
    1424:	08 95       	ret

00001426 <pvPortMalloc>:
    1426:	0f 93       	push	r16
    1428:	1f 93       	push	r17
    142a:	cf 93       	push	r28
    142c:	df 93       	push	r29
    142e:	8c 01       	movw	r16, r24
    1430:	1f d4       	rcall	.+2110   	; 0x1c70 <vTaskSuspendAll>
    1432:	80 91 d0 01 	lds	r24, 0x01D0
    1436:	90 91 d1 01 	lds	r25, 0x01D1
    143a:	98 01       	movw	r18, r16
    143c:	28 0f       	add	r18, r24
    143e:	39 1f       	adc	r19, r25
    1440:	43 e0       	ldi	r20, 0x03	; 3
    1442:	28 3e       	cpi	r18, 0xE8	; 232
    1444:	34 07       	cpc	r19, r20
    1446:	58 f4       	brcc	.+22     	; 0x145e <pvPortMalloc+0x38>
    1448:	82 17       	cp	r24, r18
    144a:	93 07       	cpc	r25, r19
    144c:	40 f4       	brcc	.+16     	; 0x145e <pvPortMalloc+0x38>
    144e:	ec 01       	movw	r28, r24
    1450:	ce 52       	subi	r28, 0x2E	; 46
    1452:	de 4f       	sbci	r29, 0xFE	; 254
    1454:	30 93 d1 01 	sts	0x01D1, r19
    1458:	20 93 d0 01 	sts	0x01D0, r18
    145c:	02 c0       	rjmp	.+4      	; 0x1462 <pvPortMalloc+0x3c>
    145e:	c0 e0       	ldi	r28, 0x00	; 0
    1460:	d0 e0       	ldi	r29, 0x00	; 0
    1462:	c3 d5       	rcall	.+2950   	; 0x1fea <xTaskResumeAll>
    1464:	ce 01       	movw	r24, r28
    1466:	df 91       	pop	r29
    1468:	cf 91       	pop	r28
    146a:	1f 91       	pop	r17
    146c:	0f 91       	pop	r16
    146e:	08 95       	ret

00001470 <vListInitialise>:
    1470:	fc 01       	movw	r30, r24
    1472:	9c 01       	movw	r18, r24
    1474:	2d 5f       	subi	r18, 0xFD	; 253
    1476:	3f 4f       	sbci	r19, 0xFF	; 255
    1478:	32 83       	std	Z+2, r19	; 0x02
    147a:	21 83       	std	Z+1, r18	; 0x01
    147c:	8f ef       	ldi	r24, 0xFF	; 255
    147e:	9f ef       	ldi	r25, 0xFF	; 255
    1480:	94 83       	std	Z+4, r25	; 0x04
    1482:	83 83       	std	Z+3, r24	; 0x03
    1484:	36 83       	std	Z+6, r19	; 0x06
    1486:	25 83       	std	Z+5, r18	; 0x05
    1488:	30 87       	std	Z+8, r19	; 0x08
    148a:	27 83       	std	Z+7, r18	; 0x07
    148c:	10 82       	st	Z, r1
    148e:	08 95       	ret

00001490 <vListInitialiseItem>:
    1490:	fc 01       	movw	r30, r24
    1492:	11 86       	std	Z+9, r1	; 0x09
    1494:	10 86       	std	Z+8, r1	; 0x08
    1496:	08 95       	ret

00001498 <vListInsertEnd>:
    1498:	cf 93       	push	r28
    149a:	df 93       	push	r29
    149c:	ac 01       	movw	r20, r24
    149e:	db 01       	movw	r26, r22
    14a0:	ec 01       	movw	r28, r24
    14a2:	29 81       	ldd	r18, Y+1	; 0x01
    14a4:	3a 81       	ldd	r19, Y+2	; 0x02
    14a6:	f9 01       	movw	r30, r18
    14a8:	82 81       	ldd	r24, Z+2	; 0x02
    14aa:	93 81       	ldd	r25, Z+3	; 0x03
    14ac:	13 96       	adiw	r26, 0x03	; 3
    14ae:	9c 93       	st	X, r25
    14b0:	8e 93       	st	-X, r24
    14b2:	12 97       	sbiw	r26, 0x02	; 2
    14b4:	89 81       	ldd	r24, Y+1	; 0x01
    14b6:	9a 81       	ldd	r25, Y+2	; 0x02
    14b8:	15 96       	adiw	r26, 0x05	; 5
    14ba:	9c 93       	st	X, r25
    14bc:	8e 93       	st	-X, r24
    14be:	14 97       	sbiw	r26, 0x04	; 4
    14c0:	02 80       	ldd	r0, Z+2	; 0x02
    14c2:	f3 81       	ldd	r31, Z+3	; 0x03
    14c4:	e0 2d       	mov	r30, r0
    14c6:	75 83       	std	Z+5, r23	; 0x05
    14c8:	64 83       	std	Z+4, r22	; 0x04
    14ca:	e9 01       	movw	r28, r18
    14cc:	7b 83       	std	Y+3, r23	; 0x03
    14ce:	6a 83       	std	Y+2, r22	; 0x02
    14d0:	fa 01       	movw	r30, r20
    14d2:	72 83       	std	Z+2, r23	; 0x02
    14d4:	61 83       	std	Z+1, r22	; 0x01
    14d6:	19 96       	adiw	r26, 0x09	; 9
    14d8:	5c 93       	st	X, r21
    14da:	4e 93       	st	-X, r20
    14dc:	18 97       	sbiw	r26, 0x08	; 8
    14de:	80 81       	ld	r24, Z
    14e0:	8f 5f       	subi	r24, 0xFF	; 255
    14e2:	80 83       	st	Z, r24
    14e4:	df 91       	pop	r29
    14e6:	cf 91       	pop	r28
    14e8:	08 95       	ret

000014ea <vListInsert>:
    14ea:	cf 93       	push	r28
    14ec:	df 93       	push	r29
    14ee:	9c 01       	movw	r18, r24
    14f0:	eb 01       	movw	r28, r22
    14f2:	48 81       	ld	r20, Y
    14f4:	59 81       	ldd	r21, Y+1	; 0x01
    14f6:	8f ef       	ldi	r24, 0xFF	; 255
    14f8:	4f 3f       	cpi	r20, 0xFF	; 255
    14fa:	58 07       	cpc	r21, r24
    14fc:	21 f4       	brne	.+8      	; 0x1506 <vListInsert+0x1c>
    14fe:	f9 01       	movw	r30, r18
    1500:	a7 81       	ldd	r26, Z+7	; 0x07
    1502:	b0 85       	ldd	r27, Z+8	; 0x08
    1504:	10 c0       	rjmp	.+32     	; 0x1526 <vListInsert+0x3c>
    1506:	d9 01       	movw	r26, r18
    1508:	13 96       	adiw	r26, 0x03	; 3
    150a:	04 c0       	rjmp	.+8      	; 0x1514 <vListInsert+0x2a>
    150c:	12 96       	adiw	r26, 0x02	; 2
    150e:	0d 90       	ld	r0, X+
    1510:	bc 91       	ld	r27, X
    1512:	a0 2d       	mov	r26, r0
    1514:	12 96       	adiw	r26, 0x02	; 2
    1516:	ed 91       	ld	r30, X+
    1518:	fc 91       	ld	r31, X
    151a:	13 97       	sbiw	r26, 0x03	; 3
    151c:	80 81       	ld	r24, Z
    151e:	91 81       	ldd	r25, Z+1	; 0x01
    1520:	48 17       	cp	r20, r24
    1522:	59 07       	cpc	r21, r25
    1524:	98 f7       	brcc	.-26     	; 0x150c <vListInsert+0x22>
    1526:	12 96       	adiw	r26, 0x02	; 2
    1528:	ed 91       	ld	r30, X+
    152a:	fc 91       	ld	r31, X
    152c:	13 97       	sbiw	r26, 0x03	; 3
    152e:	fb 83       	std	Y+3, r31	; 0x03
    1530:	ea 83       	std	Y+2, r30	; 0x02
    1532:	d5 83       	std	Z+5, r29	; 0x05
    1534:	c4 83       	std	Z+4, r28	; 0x04
    1536:	bd 83       	std	Y+5, r27	; 0x05
    1538:	ac 83       	std	Y+4, r26	; 0x04
    153a:	13 96       	adiw	r26, 0x03	; 3
    153c:	dc 93       	st	X, r29
    153e:	ce 93       	st	-X, r28
    1540:	12 97       	sbiw	r26, 0x02	; 2
    1542:	39 87       	std	Y+9, r19	; 0x09
    1544:	28 87       	std	Y+8, r18	; 0x08
    1546:	f9 01       	movw	r30, r18
    1548:	80 81       	ld	r24, Z
    154a:	8f 5f       	subi	r24, 0xFF	; 255
    154c:	80 83       	st	Z, r24
    154e:	df 91       	pop	r29
    1550:	cf 91       	pop	r28
    1552:	08 95       	ret

00001554 <vListRemove>:
    1554:	cf 93       	push	r28
    1556:	df 93       	push	r29
    1558:	dc 01       	movw	r26, r24
    155a:	12 96       	adiw	r26, 0x02	; 2
    155c:	ed 91       	ld	r30, X+
    155e:	fc 91       	ld	r31, X
    1560:	13 97       	sbiw	r26, 0x03	; 3
    1562:	14 96       	adiw	r26, 0x04	; 4
    1564:	8d 91       	ld	r24, X+
    1566:	9c 91       	ld	r25, X
    1568:	15 97       	sbiw	r26, 0x05	; 5
    156a:	95 83       	std	Z+5, r25	; 0x05
    156c:	84 83       	std	Z+4, r24	; 0x04
    156e:	14 96       	adiw	r26, 0x04	; 4
    1570:	cd 91       	ld	r28, X+
    1572:	dc 91       	ld	r29, X
    1574:	15 97       	sbiw	r26, 0x05	; 5
    1576:	fb 83       	std	Y+3, r31	; 0x03
    1578:	ea 83       	std	Y+2, r30	; 0x02
    157a:	18 96       	adiw	r26, 0x08	; 8
    157c:	ed 91       	ld	r30, X+
    157e:	fc 91       	ld	r31, X
    1580:	19 97       	sbiw	r26, 0x09	; 9
    1582:	81 81       	ldd	r24, Z+1	; 0x01
    1584:	92 81       	ldd	r25, Z+2	; 0x02
    1586:	8a 17       	cp	r24, r26
    1588:	9b 07       	cpc	r25, r27
    158a:	11 f4       	brne	.+4      	; 0x1590 <vListRemove+0x3c>
    158c:	d2 83       	std	Z+2, r29	; 0x02
    158e:	c1 83       	std	Z+1, r28	; 0x01
    1590:	19 96       	adiw	r26, 0x09	; 9
    1592:	1c 92       	st	X, r1
    1594:	1e 92       	st	-X, r1
    1596:	18 97       	sbiw	r26, 0x08	; 8
    1598:	80 81       	ld	r24, Z
    159a:	81 50       	subi	r24, 0x01	; 1
    159c:	80 83       	st	Z, r24
    159e:	df 91       	pop	r29
    15a0:	cf 91       	pop	r28
    15a2:	08 95       	ret

000015a4 <pxPortInitialiseStack>:
    15a4:	fc 01       	movw	r30, r24
    15a6:	91 e1       	ldi	r25, 0x11	; 17
    15a8:	90 83       	st	Z, r25
    15aa:	22 e2       	ldi	r18, 0x22	; 34
    15ac:	22 93       	st	-Z, r18
    15ae:	83 e3       	ldi	r24, 0x33	; 51
    15b0:	82 93       	st	-Z, r24
    15b2:	62 93       	st	-Z, r22
    15b4:	72 93       	st	-Z, r23
    15b6:	12 92       	st	-Z, r1
    15b8:	80 e8       	ldi	r24, 0x80	; 128
    15ba:	82 93       	st	-Z, r24
    15bc:	12 92       	st	-Z, r1
    15be:	82 e0       	ldi	r24, 0x02	; 2
    15c0:	82 93       	st	-Z, r24
    15c2:	83 e0       	ldi	r24, 0x03	; 3
    15c4:	82 93       	st	-Z, r24
    15c6:	84 e0       	ldi	r24, 0x04	; 4
    15c8:	82 93       	st	-Z, r24
    15ca:	85 e0       	ldi	r24, 0x05	; 5
    15cc:	82 93       	st	-Z, r24
    15ce:	86 e0       	ldi	r24, 0x06	; 6
    15d0:	82 93       	st	-Z, r24
    15d2:	87 e0       	ldi	r24, 0x07	; 7
    15d4:	82 93       	st	-Z, r24
    15d6:	88 e0       	ldi	r24, 0x08	; 8
    15d8:	82 93       	st	-Z, r24
    15da:	89 e0       	ldi	r24, 0x09	; 9
    15dc:	82 93       	st	-Z, r24
    15de:	80 e1       	ldi	r24, 0x10	; 16
    15e0:	82 93       	st	-Z, r24
    15e2:	92 93       	st	-Z, r25
    15e4:	82 e1       	ldi	r24, 0x12	; 18
    15e6:	82 93       	st	-Z, r24
    15e8:	83 e1       	ldi	r24, 0x13	; 19
    15ea:	82 93       	st	-Z, r24
    15ec:	84 e1       	ldi	r24, 0x14	; 20
    15ee:	82 93       	st	-Z, r24
    15f0:	85 e1       	ldi	r24, 0x15	; 21
    15f2:	82 93       	st	-Z, r24
    15f4:	86 e1       	ldi	r24, 0x16	; 22
    15f6:	82 93       	st	-Z, r24
    15f8:	87 e1       	ldi	r24, 0x17	; 23
    15fa:	82 93       	st	-Z, r24
    15fc:	88 e1       	ldi	r24, 0x18	; 24
    15fe:	82 93       	st	-Z, r24
    1600:	89 e1       	ldi	r24, 0x19	; 25
    1602:	82 93       	st	-Z, r24
    1604:	80 e2       	ldi	r24, 0x20	; 32
    1606:	82 93       	st	-Z, r24
    1608:	81 e2       	ldi	r24, 0x21	; 33
    160a:	82 93       	st	-Z, r24
    160c:	22 93       	st	-Z, r18
    160e:	83 e2       	ldi	r24, 0x23	; 35
    1610:	82 93       	st	-Z, r24
    1612:	42 93       	st	-Z, r20
    1614:	52 93       	st	-Z, r21
    1616:	86 e2       	ldi	r24, 0x26	; 38
    1618:	82 93       	st	-Z, r24
    161a:	87 e2       	ldi	r24, 0x27	; 39
    161c:	82 93       	st	-Z, r24
    161e:	88 e2       	ldi	r24, 0x28	; 40
    1620:	82 93       	st	-Z, r24
    1622:	89 e2       	ldi	r24, 0x29	; 41
    1624:	82 93       	st	-Z, r24
    1626:	80 e3       	ldi	r24, 0x30	; 48
    1628:	82 93       	st	-Z, r24
    162a:	81 e3       	ldi	r24, 0x31	; 49
    162c:	82 93       	st	-Z, r24
    162e:	31 97       	sbiw	r30, 0x01	; 1
    1630:	cf 01       	movw	r24, r30
    1632:	08 95       	ret

00001634 <xPortStartScheduler>:
    1634:	1b bc       	out	0x2b, r1	; 43
    1636:	8e e0       	ldi	r24, 0x0E	; 14
    1638:	8a bd       	out	0x2a, r24	; 42
    163a:	8b e0       	ldi	r24, 0x0B	; 11
    163c:	8e bd       	out	0x2e, r24	; 46
    163e:	89 b7       	in	r24, 0x39	; 57
    1640:	80 61       	ori	r24, 0x10	; 16
    1642:	89 bf       	out	0x39, r24	; 57
    1644:	a0 91 ba 05 	lds	r26, 0x05BA
    1648:	b0 91 bb 05 	lds	r27, 0x05BB
    164c:	cd 91       	ld	r28, X+
    164e:	cd bf       	out	0x3d, r28	; 61
    1650:	dd 91       	ld	r29, X+
    1652:	de bf       	out	0x3e, r29	; 62
    1654:	ff 91       	pop	r31
    1656:	ef 91       	pop	r30
    1658:	df 91       	pop	r29
    165a:	cf 91       	pop	r28
    165c:	bf 91       	pop	r27
    165e:	af 91       	pop	r26
    1660:	9f 91       	pop	r25
    1662:	8f 91       	pop	r24
    1664:	7f 91       	pop	r23
    1666:	6f 91       	pop	r22
    1668:	5f 91       	pop	r21
    166a:	4f 91       	pop	r20
    166c:	3f 91       	pop	r19
    166e:	2f 91       	pop	r18
    1670:	1f 91       	pop	r17
    1672:	0f 91       	pop	r16
    1674:	ff 90       	pop	r15
    1676:	ef 90       	pop	r14
    1678:	df 90       	pop	r13
    167a:	cf 90       	pop	r12
    167c:	bf 90       	pop	r11
    167e:	af 90       	pop	r10
    1680:	9f 90       	pop	r9
    1682:	8f 90       	pop	r8
    1684:	7f 90       	pop	r7
    1686:	6f 90       	pop	r6
    1688:	5f 90       	pop	r5
    168a:	4f 90       	pop	r4
    168c:	3f 90       	pop	r3
    168e:	2f 90       	pop	r2
    1690:	1f 90       	pop	r1
    1692:	0f 90       	pop	r0
    1694:	0f be       	out	0x3f, r0	; 63
    1696:	0f 90       	pop	r0
    1698:	08 95       	ret
    169a:	81 e0       	ldi	r24, 0x01	; 1
    169c:	08 95       	ret

0000169e <vPortYieldFromTick>:
    169e:	0f 92       	push	r0
    16a0:	0f b6       	in	r0, 0x3f	; 63
    16a2:	f8 94       	cli
    16a4:	0f 92       	push	r0
    16a6:	1f 92       	push	r1
    16a8:	11 24       	eor	r1, r1
    16aa:	2f 92       	push	r2
    16ac:	3f 92       	push	r3
    16ae:	4f 92       	push	r4
    16b0:	5f 92       	push	r5
    16b2:	6f 92       	push	r6
    16b4:	7f 92       	push	r7
    16b6:	8f 92       	push	r8
    16b8:	9f 92       	push	r9
    16ba:	af 92       	push	r10
    16bc:	bf 92       	push	r11
    16be:	cf 92       	push	r12
    16c0:	df 92       	push	r13
    16c2:	ef 92       	push	r14
    16c4:	ff 92       	push	r15
    16c6:	0f 93       	push	r16
    16c8:	1f 93       	push	r17
    16ca:	2f 93       	push	r18
    16cc:	3f 93       	push	r19
    16ce:	4f 93       	push	r20
    16d0:	5f 93       	push	r21
    16d2:	6f 93       	push	r22
    16d4:	7f 93       	push	r23
    16d6:	8f 93       	push	r24
    16d8:	9f 93       	push	r25
    16da:	af 93       	push	r26
    16dc:	bf 93       	push	r27
    16de:	cf 93       	push	r28
    16e0:	df 93       	push	r29
    16e2:	ef 93       	push	r30
    16e4:	ff 93       	push	r31
    16e6:	a0 91 ba 05 	lds	r26, 0x05BA
    16ea:	b0 91 bb 05 	lds	r27, 0x05BB
    16ee:	0d b6       	in	r0, 0x3d	; 61
    16f0:	0d 92       	st	X+, r0
    16f2:	0e b6       	in	r0, 0x3e	; 62
    16f4:	0d 92       	st	X+, r0
    16f6:	89 d3       	rcall	.+1810   	; 0x1e0a <vTaskIncrementTick>
    16f8:	c1 d2       	rcall	.+1410   	; 0x1c7c <vTaskSwitchContext>
    16fa:	a0 91 ba 05 	lds	r26, 0x05BA
    16fe:	b0 91 bb 05 	lds	r27, 0x05BB
    1702:	cd 91       	ld	r28, X+
    1704:	cd bf       	out	0x3d, r28	; 61
    1706:	dd 91       	ld	r29, X+
    1708:	de bf       	out	0x3e, r29	; 62
    170a:	ff 91       	pop	r31
    170c:	ef 91       	pop	r30
    170e:	df 91       	pop	r29
    1710:	cf 91       	pop	r28
    1712:	bf 91       	pop	r27
    1714:	af 91       	pop	r26
    1716:	9f 91       	pop	r25
    1718:	8f 91       	pop	r24
    171a:	7f 91       	pop	r23
    171c:	6f 91       	pop	r22
    171e:	5f 91       	pop	r21
    1720:	4f 91       	pop	r20
    1722:	3f 91       	pop	r19
    1724:	2f 91       	pop	r18
    1726:	1f 91       	pop	r17
    1728:	0f 91       	pop	r16
    172a:	ff 90       	pop	r15
    172c:	ef 90       	pop	r14
    172e:	df 90       	pop	r13
    1730:	cf 90       	pop	r12
    1732:	bf 90       	pop	r11
    1734:	af 90       	pop	r10
    1736:	9f 90       	pop	r9
    1738:	8f 90       	pop	r8
    173a:	7f 90       	pop	r7
    173c:	6f 90       	pop	r6
    173e:	5f 90       	pop	r5
    1740:	4f 90       	pop	r4
    1742:	3f 90       	pop	r3
    1744:	2f 90       	pop	r2
    1746:	1f 90       	pop	r1
    1748:	0f 90       	pop	r0
    174a:	0f be       	out	0x3f, r0	; 63
    174c:	0f 90       	pop	r0
    174e:	08 95       	ret

00001750 <__vector_7>:
    1750:	a6 df       	rcall	.-180    	; 0x169e <vPortYieldFromTick>
    1752:	18 95       	reti

00001754 <vPortYield>:
    1754:	0f 92       	push	r0
    1756:	0f b6       	in	r0, 0x3f	; 63
    1758:	f8 94       	cli
    175a:	0f 92       	push	r0
    175c:	1f 92       	push	r1
    175e:	11 24       	eor	r1, r1
    1760:	2f 92       	push	r2
    1762:	3f 92       	push	r3
    1764:	4f 92       	push	r4
    1766:	5f 92       	push	r5
    1768:	6f 92       	push	r6
    176a:	7f 92       	push	r7
    176c:	8f 92       	push	r8
    176e:	9f 92       	push	r9
    1770:	af 92       	push	r10
    1772:	bf 92       	push	r11
    1774:	cf 92       	push	r12
    1776:	df 92       	push	r13
    1778:	ef 92       	push	r14
    177a:	ff 92       	push	r15
    177c:	0f 93       	push	r16
    177e:	1f 93       	push	r17
    1780:	2f 93       	push	r18
    1782:	3f 93       	push	r19
    1784:	4f 93       	push	r20
    1786:	5f 93       	push	r21
    1788:	6f 93       	push	r22
    178a:	7f 93       	push	r23
    178c:	8f 93       	push	r24
    178e:	9f 93       	push	r25
    1790:	af 93       	push	r26
    1792:	bf 93       	push	r27
    1794:	cf 93       	push	r28
    1796:	df 93       	push	r29
    1798:	ef 93       	push	r30
    179a:	ff 93       	push	r31
    179c:	a0 91 ba 05 	lds	r26, 0x05BA
    17a0:	b0 91 bb 05 	lds	r27, 0x05BB
    17a4:	0d b6       	in	r0, 0x3d	; 61
    17a6:	0d 92       	st	X+, r0
    17a8:	0e b6       	in	r0, 0x3e	; 62
    17aa:	0d 92       	st	X+, r0
    17ac:	67 d2       	rcall	.+1230   	; 0x1c7c <vTaskSwitchContext>
    17ae:	a0 91 ba 05 	lds	r26, 0x05BA
    17b2:	b0 91 bb 05 	lds	r27, 0x05BB
    17b6:	cd 91       	ld	r28, X+
    17b8:	cd bf       	out	0x3d, r28	; 61
    17ba:	dd 91       	ld	r29, X+
    17bc:	de bf       	out	0x3e, r29	; 62
    17be:	ff 91       	pop	r31
    17c0:	ef 91       	pop	r30
    17c2:	df 91       	pop	r29
    17c4:	cf 91       	pop	r28
    17c6:	bf 91       	pop	r27
    17c8:	af 91       	pop	r26
    17ca:	9f 91       	pop	r25
    17cc:	8f 91       	pop	r24
    17ce:	7f 91       	pop	r23
    17d0:	6f 91       	pop	r22
    17d2:	5f 91       	pop	r21
    17d4:	4f 91       	pop	r20
    17d6:	3f 91       	pop	r19
    17d8:	2f 91       	pop	r18
    17da:	1f 91       	pop	r17
    17dc:	0f 91       	pop	r16
    17de:	ff 90       	pop	r15
    17e0:	ef 90       	pop	r14
    17e2:	df 90       	pop	r13
    17e4:	cf 90       	pop	r12
    17e6:	bf 90       	pop	r11
    17e8:	af 90       	pop	r10
    17ea:	9f 90       	pop	r9
    17ec:	8f 90       	pop	r8
    17ee:	7f 90       	pop	r7
    17f0:	6f 90       	pop	r6
    17f2:	5f 90       	pop	r5
    17f4:	4f 90       	pop	r4
    17f6:	3f 90       	pop	r3
    17f8:	2f 90       	pop	r2
    17fa:	1f 90       	pop	r1
    17fc:	0f 90       	pop	r0
    17fe:	0f be       	out	0x3f, r0	; 63
    1800:	0f 90       	pop	r0
    1802:	08 95       	ret

00001804 <prvCopyDataToQueue>:
    1804:	cf 93       	push	r28
    1806:	df 93       	push	r29
    1808:	ec 01       	movw	r28, r24
    180a:	84 2f       	mov	r24, r20
    180c:	4c 8d       	ldd	r20, Y+28	; 0x1c
    180e:	44 23       	and	r20, r20
    1810:	a1 f1       	breq	.+104    	; 0x187a <prvCopyDataToQueue+0x76>
    1812:	88 23       	and	r24, r24
    1814:	b1 f4       	brne	.+44     	; 0x1842 <prvCopyDataToQueue+0x3e>
    1816:	8c 81       	ldd	r24, Y+4	; 0x04
    1818:	9d 81       	ldd	r25, Y+5	; 0x05
    181a:	50 e0       	ldi	r21, 0x00	; 0
    181c:	0e 94 db 14 	call	0x29b6	; 0x29b6 <memcpy>
    1820:	8c 8d       	ldd	r24, Y+28	; 0x1c
    1822:	2c 81       	ldd	r18, Y+4	; 0x04
    1824:	3d 81       	ldd	r19, Y+5	; 0x05
    1826:	28 0f       	add	r18, r24
    1828:	31 1d       	adc	r19, r1
    182a:	3d 83       	std	Y+5, r19	; 0x05
    182c:	2c 83       	std	Y+4, r18	; 0x04
    182e:	8a 81       	ldd	r24, Y+2	; 0x02
    1830:	9b 81       	ldd	r25, Y+3	; 0x03
    1832:	28 17       	cp	r18, r24
    1834:	39 07       	cpc	r19, r25
    1836:	08 f1       	brcs	.+66     	; 0x187a <prvCopyDataToQueue+0x76>
    1838:	88 81       	ld	r24, Y
    183a:	99 81       	ldd	r25, Y+1	; 0x01
    183c:	9d 83       	std	Y+5, r25	; 0x05
    183e:	8c 83       	std	Y+4, r24	; 0x04
    1840:	1c c0       	rjmp	.+56     	; 0x187a <prvCopyDataToQueue+0x76>
    1842:	8e 81       	ldd	r24, Y+6	; 0x06
    1844:	9f 81       	ldd	r25, Y+7	; 0x07
    1846:	50 e0       	ldi	r21, 0x00	; 0
    1848:	0e 94 db 14 	call	0x29b6	; 0x29b6 <memcpy>
    184c:	8c 8d       	ldd	r24, Y+28	; 0x1c
    184e:	90 e0       	ldi	r25, 0x00	; 0
    1850:	44 27       	eor	r20, r20
    1852:	55 27       	eor	r21, r21
    1854:	48 1b       	sub	r20, r24
    1856:	59 0b       	sbc	r21, r25
    1858:	8e 81       	ldd	r24, Y+6	; 0x06
    185a:	9f 81       	ldd	r25, Y+7	; 0x07
    185c:	84 0f       	add	r24, r20
    185e:	95 1f       	adc	r25, r21
    1860:	9f 83       	std	Y+7, r25	; 0x07
    1862:	8e 83       	std	Y+6, r24	; 0x06
    1864:	28 81       	ld	r18, Y
    1866:	39 81       	ldd	r19, Y+1	; 0x01
    1868:	82 17       	cp	r24, r18
    186a:	93 07       	cpc	r25, r19
    186c:	30 f4       	brcc	.+12     	; 0x187a <prvCopyDataToQueue+0x76>
    186e:	8a 81       	ldd	r24, Y+2	; 0x02
    1870:	9b 81       	ldd	r25, Y+3	; 0x03
    1872:	84 0f       	add	r24, r20
    1874:	95 1f       	adc	r25, r21
    1876:	9f 83       	std	Y+7, r25	; 0x07
    1878:	8e 83       	std	Y+6, r24	; 0x06
    187a:	8a 8d       	ldd	r24, Y+26	; 0x1a
    187c:	8f 5f       	subi	r24, 0xFF	; 255
    187e:	8a 8f       	std	Y+26, r24	; 0x1a
    1880:	df 91       	pop	r29
    1882:	cf 91       	pop	r28
    1884:	08 95       	ret

00001886 <prvUnlockQueue>:
    1886:	0f 93       	push	r16
    1888:	1f 93       	push	r17
    188a:	cf 93       	push	r28
    188c:	df 93       	push	r29
    188e:	ec 01       	movw	r28, r24
    1890:	0f b6       	in	r0, 0x3f	; 63
    1892:	f8 94       	cli
    1894:	0f 92       	push	r0
    1896:	8c 01       	movw	r16, r24
    1898:	0f 5e       	subi	r16, 0xEF	; 239
    189a:	1f 4f       	sbci	r17, 0xFF	; 255
    189c:	0b c0       	rjmp	.+22     	; 0x18b4 <prvUnlockQueue+0x2e>
    189e:	89 89       	ldd	r24, Y+17	; 0x11
    18a0:	88 23       	and	r24, r24
    18a2:	59 f0       	breq	.+22     	; 0x18ba <prvUnlockQueue+0x34>
    18a4:	c8 01       	movw	r24, r16
    18a6:	75 d2       	rcall	.+1258   	; 0x1d92 <xTaskRemoveFromEventList>
    18a8:	88 23       	and	r24, r24
    18aa:	09 f0       	breq	.+2      	; 0x18ae <prvUnlockQueue+0x28>
    18ac:	6e d2       	rcall	.+1244   	; 0x1d8a <vTaskMissedYield>
    18ae:	8e 8d       	ldd	r24, Y+30	; 0x1e
    18b0:	81 50       	subi	r24, 0x01	; 1
    18b2:	8e 8f       	std	Y+30, r24	; 0x1e
    18b4:	8e 8d       	ldd	r24, Y+30	; 0x1e
    18b6:	18 16       	cp	r1, r24
    18b8:	94 f3       	brlt	.-28     	; 0x189e <prvUnlockQueue+0x18>
    18ba:	8f ef       	ldi	r24, 0xFF	; 255
    18bc:	8e 8f       	std	Y+30, r24	; 0x1e
    18be:	0f 90       	pop	r0
    18c0:	0f be       	out	0x3f, r0	; 63
    18c2:	0f b6       	in	r0, 0x3f	; 63
    18c4:	f8 94       	cli
    18c6:	0f 92       	push	r0
    18c8:	8e 01       	movw	r16, r28
    18ca:	08 5f       	subi	r16, 0xF8	; 248
    18cc:	1f 4f       	sbci	r17, 0xFF	; 255
    18ce:	0b c0       	rjmp	.+22     	; 0x18e6 <prvUnlockQueue+0x60>
    18d0:	88 85       	ldd	r24, Y+8	; 0x08
    18d2:	88 23       	and	r24, r24
    18d4:	59 f0       	breq	.+22     	; 0x18ec <prvUnlockQueue+0x66>
    18d6:	c8 01       	movw	r24, r16
    18d8:	5c d2       	rcall	.+1208   	; 0x1d92 <xTaskRemoveFromEventList>
    18da:	88 23       	and	r24, r24
    18dc:	09 f0       	breq	.+2      	; 0x18e0 <prvUnlockQueue+0x5a>
    18de:	55 d2       	rcall	.+1194   	; 0x1d8a <vTaskMissedYield>
    18e0:	8d 8d       	ldd	r24, Y+29	; 0x1d
    18e2:	81 50       	subi	r24, 0x01	; 1
    18e4:	8d 8f       	std	Y+29, r24	; 0x1d
    18e6:	8d 8d       	ldd	r24, Y+29	; 0x1d
    18e8:	18 16       	cp	r1, r24
    18ea:	94 f3       	brlt	.-28     	; 0x18d0 <prvUnlockQueue+0x4a>
    18ec:	8f ef       	ldi	r24, 0xFF	; 255
    18ee:	8d 8f       	std	Y+29, r24	; 0x1d
    18f0:	0f 90       	pop	r0
    18f2:	0f be       	out	0x3f, r0	; 63
    18f4:	df 91       	pop	r29
    18f6:	cf 91       	pop	r28
    18f8:	1f 91       	pop	r17
    18fa:	0f 91       	pop	r16
    18fc:	08 95       	ret

000018fe <xQueueGenericReceive>:
    18fe:	7f 92       	push	r7
    1900:	8f 92       	push	r8
    1902:	9f 92       	push	r9
    1904:	af 92       	push	r10
    1906:	bf 92       	push	r11
    1908:	cf 92       	push	r12
    190a:	df 92       	push	r13
    190c:	ef 92       	push	r14
    190e:	ff 92       	push	r15
    1910:	0f 93       	push	r16
    1912:	1f 93       	push	r17
    1914:	df 93       	push	r29
    1916:	cf 93       	push	r28
    1918:	00 d0       	rcall	.+0      	; 0x191a <xQueueGenericReceive+0x1c>
    191a:	00 d0       	rcall	.+0      	; 0x191c <xQueueGenericReceive+0x1e>
    191c:	0f 92       	push	r0
    191e:	cd b7       	in	r28, 0x3d	; 61
    1920:	de b7       	in	r29, 0x3e	; 62
    1922:	8c 01       	movw	r16, r24
    1924:	96 2e       	mov	r9, r22
    1926:	87 2e       	mov	r8, r23
    1928:	5d 83       	std	Y+5, r21	; 0x05
    192a:	4c 83       	std	Y+4, r20	; 0x04
    192c:	72 2e       	mov	r7, r18
    192e:	91 e1       	ldi	r25, 0x11	; 17
    1930:	c9 2e       	mov	r12, r25
    1932:	d1 2c       	mov	r13, r1
    1934:	c0 0e       	add	r12, r16
    1936:	d1 1e       	adc	r13, r17
    1938:	20 e0       	ldi	r18, 0x00	; 0
    193a:	7e 01       	movw	r14, r28
    193c:	08 94       	sec
    193e:	e1 1c       	adc	r14, r1
    1940:	f1 1c       	adc	r15, r1
    1942:	84 e0       	ldi	r24, 0x04	; 4
    1944:	a8 2e       	mov	r10, r24
    1946:	b1 2c       	mov	r11, r1
    1948:	ac 0e       	add	r10, r28
    194a:	bd 1e       	adc	r11, r29
    194c:	01 c0       	rjmp	.+2      	; 0x1950 <xQueueGenericReceive+0x52>
    194e:	21 e0       	ldi	r18, 0x01	; 1
    1950:	0f b6       	in	r0, 0x3f	; 63
    1952:	f8 94       	cli
    1954:	0f 92       	push	r0
    1956:	f8 01       	movw	r30, r16
    1958:	82 8d       	ldd	r24, Z+26	; 0x1a
    195a:	88 23       	and	r24, r24
    195c:	09 f4       	brne	.+2      	; 0x1960 <xQueueGenericReceive+0x62>
    195e:	3b c0       	rjmp	.+118    	; 0x19d6 <xQueueGenericReceive+0xd8>
    1960:	e6 80       	ldd	r14, Z+6	; 0x06
    1962:	f7 80       	ldd	r15, Z+7	; 0x07
    1964:	40 81       	ld	r20, Z
    1966:	51 81       	ldd	r21, Z+1	; 0x01
    1968:	41 15       	cp	r20, r1
    196a:	51 05       	cpc	r21, r1
    196c:	b1 f0       	breq	.+44     	; 0x199a <xQueueGenericReceive+0x9c>
    196e:	84 8d       	ldd	r24, Z+28	; 0x1c
    1970:	97 01       	movw	r18, r14
    1972:	28 0f       	add	r18, r24
    1974:	31 1d       	adc	r19, r1
    1976:	37 83       	std	Z+7, r19	; 0x07
    1978:	26 83       	std	Z+6, r18	; 0x06
    197a:	82 81       	ldd	r24, Z+2	; 0x02
    197c:	93 81       	ldd	r25, Z+3	; 0x03
    197e:	28 17       	cp	r18, r24
    1980:	39 07       	cpc	r19, r25
    1982:	10 f0       	brcs	.+4      	; 0x1988 <xQueueGenericReceive+0x8a>
    1984:	57 83       	std	Z+7, r21	; 0x07
    1986:	46 83       	std	Z+6, r20	; 0x06
    1988:	f8 01       	movw	r30, r16
    198a:	44 8d       	ldd	r20, Z+28	; 0x1c
    198c:	66 81       	ldd	r22, Z+6	; 0x06
    198e:	77 81       	ldd	r23, Z+7	; 0x07
    1990:	89 2d       	mov	r24, r9
    1992:	98 2d       	mov	r25, r8
    1994:	50 e0       	ldi	r21, 0x00	; 0
    1996:	0e 94 db 14 	call	0x29b6	; 0x29b6 <memcpy>
    199a:	77 20       	and	r7, r7
    199c:	69 f4       	brne	.+26     	; 0x19b8 <xQueueGenericReceive+0xba>
    199e:	f8 01       	movw	r30, r16
    19a0:	82 8d       	ldd	r24, Z+26	; 0x1a
    19a2:	81 50       	subi	r24, 0x01	; 1
    19a4:	82 8f       	std	Z+26, r24	; 0x1a
    19a6:	80 85       	ldd	r24, Z+8	; 0x08
    19a8:	88 23       	and	r24, r24
    19aa:	89 f0       	breq	.+34     	; 0x19ce <xQueueGenericReceive+0xd0>
    19ac:	c8 01       	movw	r24, r16
    19ae:	08 96       	adiw	r24, 0x08	; 8
    19b0:	f0 d1       	rcall	.+992    	; 0x1d92 <xTaskRemoveFromEventList>
    19b2:	81 30       	cpi	r24, 0x01	; 1
    19b4:	61 f4       	brne	.+24     	; 0x19ce <xQueueGenericReceive+0xd0>
    19b6:	0a c0       	rjmp	.+20     	; 0x19cc <xQueueGenericReceive+0xce>
    19b8:	f8 01       	movw	r30, r16
    19ba:	f7 82       	std	Z+7, r15	; 0x07
    19bc:	e6 82       	std	Z+6, r14	; 0x06
    19be:	81 89       	ldd	r24, Z+17	; 0x11
    19c0:	88 23       	and	r24, r24
    19c2:	29 f0       	breq	.+10     	; 0x19ce <xQueueGenericReceive+0xd0>
    19c4:	c6 01       	movw	r24, r12
    19c6:	e5 d1       	rcall	.+970    	; 0x1d92 <xTaskRemoveFromEventList>
    19c8:	88 23       	and	r24, r24
    19ca:	09 f0       	breq	.+2      	; 0x19ce <xQueueGenericReceive+0xd0>
    19cc:	c3 de       	rcall	.-634    	; 0x1754 <vPortYield>
    19ce:	0f 90       	pop	r0
    19d0:	0f be       	out	0x3f, r0	; 63
    19d2:	81 e0       	ldi	r24, 0x01	; 1
    19d4:	3f c0       	rjmp	.+126    	; 0x1a54 <xQueueGenericReceive+0x156>
    19d6:	8c 81       	ldd	r24, Y+4	; 0x04
    19d8:	9d 81       	ldd	r25, Y+5	; 0x05
    19da:	89 2b       	or	r24, r25
    19dc:	19 f4       	brne	.+6      	; 0x19e4 <xQueueGenericReceive+0xe6>
    19de:	0f 90       	pop	r0
    19e0:	0f be       	out	0x3f, r0	; 63
    19e2:	37 c0       	rjmp	.+110    	; 0x1a52 <xQueueGenericReceive+0x154>
    19e4:	22 23       	and	r18, r18
    19e6:	11 f4       	brne	.+4      	; 0x19ec <xQueueGenericReceive+0xee>
    19e8:	c7 01       	movw	r24, r14
    19ea:	8a d1       	rcall	.+788    	; 0x1d00 <vTaskSetTimeOutState>
    19ec:	0f 90       	pop	r0
    19ee:	0f be       	out	0x3f, r0	; 63
    19f0:	3f d1       	rcall	.+638    	; 0x1c70 <vTaskSuspendAll>
    19f2:	0f b6       	in	r0, 0x3f	; 63
    19f4:	f8 94       	cli
    19f6:	0f 92       	push	r0
    19f8:	f8 01       	movw	r30, r16
    19fa:	85 8d       	ldd	r24, Z+29	; 0x1d
    19fc:	8f 3f       	cpi	r24, 0xFF	; 255
    19fe:	09 f4       	brne	.+2      	; 0x1a02 <xQueueGenericReceive+0x104>
    1a00:	15 8e       	std	Z+29, r1	; 0x1d
    1a02:	f8 01       	movw	r30, r16
    1a04:	86 8d       	ldd	r24, Z+30	; 0x1e
    1a06:	8f 3f       	cpi	r24, 0xFF	; 255
    1a08:	09 f4       	brne	.+2      	; 0x1a0c <xQueueGenericReceive+0x10e>
    1a0a:	16 8e       	std	Z+30, r1	; 0x1e
    1a0c:	0f 90       	pop	r0
    1a0e:	0f be       	out	0x3f, r0	; 63
    1a10:	c7 01       	movw	r24, r14
    1a12:	b5 01       	movw	r22, r10
    1a14:	80 d1       	rcall	.+768    	; 0x1d16 <xTaskCheckForTimeOut>
    1a16:	88 23       	and	r24, r24
    1a18:	c9 f4       	brne	.+50     	; 0x1a4c <xQueueGenericReceive+0x14e>
    1a1a:	0f b6       	in	r0, 0x3f	; 63
    1a1c:	f8 94       	cli
    1a1e:	0f 92       	push	r0
    1a20:	f8 01       	movw	r30, r16
    1a22:	82 8d       	ldd	r24, Z+26	; 0x1a
    1a24:	0f 90       	pop	r0
    1a26:	0f be       	out	0x3f, r0	; 63
    1a28:	88 23       	and	r24, r24
    1a2a:	61 f4       	brne	.+24     	; 0x1a44 <xQueueGenericReceive+0x146>
    1a2c:	6c 81       	ldd	r22, Y+4	; 0x04
    1a2e:	7d 81       	ldd	r23, Y+5	; 0x05
    1a30:	c6 01       	movw	r24, r12
    1a32:	c1 d2       	rcall	.+1410   	; 0x1fb6 <vTaskPlaceOnEventList>
    1a34:	c8 01       	movw	r24, r16
    1a36:	27 df       	rcall	.-434    	; 0x1886 <prvUnlockQueue>
    1a38:	d8 d2       	rcall	.+1456   	; 0x1fea <xTaskResumeAll>
    1a3a:	88 23       	and	r24, r24
    1a3c:	09 f0       	breq	.+2      	; 0x1a40 <xQueueGenericReceive+0x142>
    1a3e:	87 cf       	rjmp	.-242    	; 0x194e <xQueueGenericReceive+0x50>
    1a40:	89 de       	rcall	.-750    	; 0x1754 <vPortYield>
    1a42:	85 cf       	rjmp	.-246    	; 0x194e <xQueueGenericReceive+0x50>
    1a44:	c8 01       	movw	r24, r16
    1a46:	1f df       	rcall	.-450    	; 0x1886 <prvUnlockQueue>
    1a48:	d0 d2       	rcall	.+1440   	; 0x1fea <xTaskResumeAll>
    1a4a:	81 cf       	rjmp	.-254    	; 0x194e <xQueueGenericReceive+0x50>
    1a4c:	c8 01       	movw	r24, r16
    1a4e:	1b df       	rcall	.-458    	; 0x1886 <prvUnlockQueue>
    1a50:	cc d2       	rcall	.+1432   	; 0x1fea <xTaskResumeAll>
    1a52:	80 e0       	ldi	r24, 0x00	; 0
    1a54:	0f 90       	pop	r0
    1a56:	0f 90       	pop	r0
    1a58:	0f 90       	pop	r0
    1a5a:	0f 90       	pop	r0
    1a5c:	0f 90       	pop	r0
    1a5e:	cf 91       	pop	r28
    1a60:	df 91       	pop	r29
    1a62:	1f 91       	pop	r17
    1a64:	0f 91       	pop	r16
    1a66:	ff 90       	pop	r15
    1a68:	ef 90       	pop	r14
    1a6a:	df 90       	pop	r13
    1a6c:	cf 90       	pop	r12
    1a6e:	bf 90       	pop	r11
    1a70:	af 90       	pop	r10
    1a72:	9f 90       	pop	r9
    1a74:	8f 90       	pop	r8
    1a76:	7f 90       	pop	r7
    1a78:	08 95       	ret

00001a7a <xQueueGenericSend>:
    1a7a:	7f 92       	push	r7
    1a7c:	8f 92       	push	r8
    1a7e:	9f 92       	push	r9
    1a80:	af 92       	push	r10
    1a82:	bf 92       	push	r11
    1a84:	cf 92       	push	r12
    1a86:	df 92       	push	r13
    1a88:	ef 92       	push	r14
    1a8a:	ff 92       	push	r15
    1a8c:	0f 93       	push	r16
    1a8e:	1f 93       	push	r17
    1a90:	df 93       	push	r29
    1a92:	cf 93       	push	r28
    1a94:	00 d0       	rcall	.+0      	; 0x1a96 <xQueueGenericSend+0x1c>
    1a96:	00 d0       	rcall	.+0      	; 0x1a98 <xQueueGenericSend+0x1e>
    1a98:	0f 92       	push	r0
    1a9a:	cd b7       	in	r28, 0x3d	; 61
    1a9c:	de b7       	in	r29, 0x3e	; 62
    1a9e:	8c 01       	movw	r16, r24
    1aa0:	6b 01       	movw	r12, r22
    1aa2:	5d 83       	std	Y+5, r21	; 0x05
    1aa4:	4c 83       	std	Y+4, r20	; 0x04
    1aa6:	72 2e       	mov	r7, r18
    1aa8:	48 e0       	ldi	r20, 0x08	; 8
    1aaa:	e4 2e       	mov	r14, r20
    1aac:	f1 2c       	mov	r15, r1
    1aae:	e8 0e       	add	r14, r24
    1ab0:	f9 1e       	adc	r15, r25
    1ab2:	20 e0       	ldi	r18, 0x00	; 0
    1ab4:	5e 01       	movw	r10, r28
    1ab6:	08 94       	sec
    1ab8:	a1 1c       	adc	r10, r1
    1aba:	b1 1c       	adc	r11, r1
    1abc:	34 e0       	ldi	r19, 0x04	; 4
    1abe:	83 2e       	mov	r8, r19
    1ac0:	91 2c       	mov	r9, r1
    1ac2:	8c 0e       	add	r8, r28
    1ac4:	9d 1e       	adc	r9, r29
    1ac6:	01 c0       	rjmp	.+2      	; 0x1aca <xQueueGenericSend+0x50>
    1ac8:	21 e0       	ldi	r18, 0x01	; 1
    1aca:	0f b6       	in	r0, 0x3f	; 63
    1acc:	f8 94       	cli
    1ace:	0f 92       	push	r0
    1ad0:	f8 01       	movw	r30, r16
    1ad2:	92 8d       	ldd	r25, Z+26	; 0x1a
    1ad4:	83 8d       	ldd	r24, Z+27	; 0x1b
    1ad6:	98 17       	cp	r25, r24
    1ad8:	90 f4       	brcc	.+36     	; 0x1afe <xQueueGenericSend+0x84>
    1ada:	c8 01       	movw	r24, r16
    1adc:	b6 01       	movw	r22, r12
    1ade:	47 2d       	mov	r20, r7
    1ae0:	91 de       	rcall	.-734    	; 0x1804 <prvCopyDataToQueue>
    1ae2:	f8 01       	movw	r30, r16
    1ae4:	81 89       	ldd	r24, Z+17	; 0x11
    1ae6:	88 23       	and	r24, r24
    1ae8:	31 f0       	breq	.+12     	; 0x1af6 <xQueueGenericSend+0x7c>
    1aea:	c8 01       	movw	r24, r16
    1aec:	41 96       	adiw	r24, 0x11	; 17
    1aee:	51 d1       	rcall	.+674    	; 0x1d92 <xTaskRemoveFromEventList>
    1af0:	81 30       	cpi	r24, 0x01	; 1
    1af2:	09 f4       	brne	.+2      	; 0x1af6 <xQueueGenericSend+0x7c>
    1af4:	2f de       	rcall	.-930    	; 0x1754 <vPortYield>
    1af6:	0f 90       	pop	r0
    1af8:	0f be       	out	0x3f, r0	; 63
    1afa:	81 e0       	ldi	r24, 0x01	; 1
    1afc:	41 c0       	rjmp	.+130    	; 0x1b80 <xQueueGenericSend+0x106>
    1afe:	8c 81       	ldd	r24, Y+4	; 0x04
    1b00:	9d 81       	ldd	r25, Y+5	; 0x05
    1b02:	89 2b       	or	r24, r25
    1b04:	19 f4       	brne	.+6      	; 0x1b0c <xQueueGenericSend+0x92>
    1b06:	0f 90       	pop	r0
    1b08:	0f be       	out	0x3f, r0	; 63
    1b0a:	39 c0       	rjmp	.+114    	; 0x1b7e <xQueueGenericSend+0x104>
    1b0c:	22 23       	and	r18, r18
    1b0e:	11 f4       	brne	.+4      	; 0x1b14 <xQueueGenericSend+0x9a>
    1b10:	c5 01       	movw	r24, r10
    1b12:	f6 d0       	rcall	.+492    	; 0x1d00 <vTaskSetTimeOutState>
    1b14:	0f 90       	pop	r0
    1b16:	0f be       	out	0x3f, r0	; 63
    1b18:	ab d0       	rcall	.+342    	; 0x1c70 <vTaskSuspendAll>
    1b1a:	0f b6       	in	r0, 0x3f	; 63
    1b1c:	f8 94       	cli
    1b1e:	0f 92       	push	r0
    1b20:	f8 01       	movw	r30, r16
    1b22:	85 8d       	ldd	r24, Z+29	; 0x1d
    1b24:	8f 3f       	cpi	r24, 0xFF	; 255
    1b26:	09 f4       	brne	.+2      	; 0x1b2a <xQueueGenericSend+0xb0>
    1b28:	15 8e       	std	Z+29, r1	; 0x1d
    1b2a:	f8 01       	movw	r30, r16
    1b2c:	86 8d       	ldd	r24, Z+30	; 0x1e
    1b2e:	8f 3f       	cpi	r24, 0xFF	; 255
    1b30:	09 f4       	brne	.+2      	; 0x1b34 <xQueueGenericSend+0xba>
    1b32:	16 8e       	std	Z+30, r1	; 0x1e
    1b34:	0f 90       	pop	r0
    1b36:	0f be       	out	0x3f, r0	; 63
    1b38:	c5 01       	movw	r24, r10
    1b3a:	b4 01       	movw	r22, r8
    1b3c:	ec d0       	rcall	.+472    	; 0x1d16 <xTaskCheckForTimeOut>
    1b3e:	88 23       	and	r24, r24
    1b40:	d9 f4       	brne	.+54     	; 0x1b78 <xQueueGenericSend+0xfe>
    1b42:	0f b6       	in	r0, 0x3f	; 63
    1b44:	f8 94       	cli
    1b46:	0f 92       	push	r0
    1b48:	f8 01       	movw	r30, r16
    1b4a:	92 8d       	ldd	r25, Z+26	; 0x1a
    1b4c:	0f 90       	pop	r0
    1b4e:	0f be       	out	0x3f, r0	; 63
    1b50:	f8 01       	movw	r30, r16
    1b52:	83 8d       	ldd	r24, Z+27	; 0x1b
    1b54:	98 17       	cp	r25, r24
    1b56:	61 f4       	brne	.+24     	; 0x1b70 <xQueueGenericSend+0xf6>
    1b58:	6c 81       	ldd	r22, Y+4	; 0x04
    1b5a:	7d 81       	ldd	r23, Y+5	; 0x05
    1b5c:	c7 01       	movw	r24, r14
    1b5e:	2b d2       	rcall	.+1110   	; 0x1fb6 <vTaskPlaceOnEventList>
    1b60:	c8 01       	movw	r24, r16
    1b62:	91 de       	rcall	.-734    	; 0x1886 <prvUnlockQueue>
    1b64:	42 d2       	rcall	.+1156   	; 0x1fea <xTaskResumeAll>
    1b66:	88 23       	and	r24, r24
    1b68:	09 f0       	breq	.+2      	; 0x1b6c <xQueueGenericSend+0xf2>
    1b6a:	ae cf       	rjmp	.-164    	; 0x1ac8 <xQueueGenericSend+0x4e>
    1b6c:	f3 dd       	rcall	.-1050   	; 0x1754 <vPortYield>
    1b6e:	ac cf       	rjmp	.-168    	; 0x1ac8 <xQueueGenericSend+0x4e>
    1b70:	c8 01       	movw	r24, r16
    1b72:	89 de       	rcall	.-750    	; 0x1886 <prvUnlockQueue>
    1b74:	3a d2       	rcall	.+1140   	; 0x1fea <xTaskResumeAll>
    1b76:	a8 cf       	rjmp	.-176    	; 0x1ac8 <xQueueGenericSend+0x4e>
    1b78:	c8 01       	movw	r24, r16
    1b7a:	85 de       	rcall	.-758    	; 0x1886 <prvUnlockQueue>
    1b7c:	36 d2       	rcall	.+1132   	; 0x1fea <xTaskResumeAll>
    1b7e:	80 e0       	ldi	r24, 0x00	; 0
    1b80:	0f 90       	pop	r0
    1b82:	0f 90       	pop	r0
    1b84:	0f 90       	pop	r0
    1b86:	0f 90       	pop	r0
    1b88:	0f 90       	pop	r0
    1b8a:	cf 91       	pop	r28
    1b8c:	df 91       	pop	r29
    1b8e:	1f 91       	pop	r17
    1b90:	0f 91       	pop	r16
    1b92:	ff 90       	pop	r15
    1b94:	ef 90       	pop	r14
    1b96:	df 90       	pop	r13
    1b98:	cf 90       	pop	r12
    1b9a:	bf 90       	pop	r11
    1b9c:	af 90       	pop	r10
    1b9e:	9f 90       	pop	r9
    1ba0:	8f 90       	pop	r8
    1ba2:	7f 90       	pop	r7
    1ba4:	08 95       	ret

00001ba6 <xQueueCreate>:
    1ba6:	af 92       	push	r10
    1ba8:	bf 92       	push	r11
    1baa:	cf 92       	push	r12
    1bac:	df 92       	push	r13
    1bae:	ef 92       	push	r14
    1bb0:	ff 92       	push	r15
    1bb2:	0f 93       	push	r16
    1bb4:	1f 93       	push	r17
    1bb6:	cf 93       	push	r28
    1bb8:	df 93       	push	r29
    1bba:	b8 2e       	mov	r11, r24
    1bbc:	a6 2e       	mov	r10, r22
    1bbe:	88 23       	and	r24, r24
    1bc0:	09 f4       	brne	.+2      	; 0x1bc4 <xQueueCreate+0x1e>
    1bc2:	3d c0       	rjmp	.+122    	; 0x1c3e <xQueueCreate+0x98>
    1bc4:	8f e1       	ldi	r24, 0x1F	; 31
    1bc6:	90 e0       	ldi	r25, 0x00	; 0
    1bc8:	2e dc       	rcall	.-1956   	; 0x1426 <pvPortMalloc>
    1bca:	ec 01       	movw	r28, r24
    1bcc:	00 97       	sbiw	r24, 0x00	; 0
    1bce:	b9 f1       	breq	.+110    	; 0x1c3e <xQueueCreate+0x98>
    1bd0:	eb 2c       	mov	r14, r11
    1bd2:	ff 24       	eor	r15, r15
    1bd4:	ca 2c       	mov	r12, r10
    1bd6:	dd 24       	eor	r13, r13
    1bd8:	ce 9c       	mul	r12, r14
    1bda:	80 01       	movw	r16, r0
    1bdc:	cf 9c       	mul	r12, r15
    1bde:	10 0d       	add	r17, r0
    1be0:	de 9c       	mul	r13, r14
    1be2:	10 0d       	add	r17, r0
    1be4:	11 24       	eor	r1, r1
    1be6:	c8 01       	movw	r24, r16
    1be8:	01 96       	adiw	r24, 0x01	; 1
    1bea:	1d dc       	rcall	.-1990   	; 0x1426 <pvPortMalloc>
    1bec:	9c 01       	movw	r18, r24
    1bee:	99 83       	std	Y+1, r25	; 0x01
    1bf0:	88 83       	st	Y, r24
    1bf2:	00 97       	sbiw	r24, 0x00	; 0
    1bf4:	11 f1       	breq	.+68     	; 0x1c3a <xQueueCreate+0x94>
    1bf6:	08 0f       	add	r16, r24
    1bf8:	19 1f       	adc	r17, r25
    1bfa:	1b 83       	std	Y+3, r17	; 0x03
    1bfc:	0a 83       	std	Y+2, r16	; 0x02
    1bfe:	1a 8e       	std	Y+26, r1	; 0x1a
    1c00:	9d 83       	std	Y+5, r25	; 0x05
    1c02:	8c 83       	std	Y+4, r24	; 0x04
    1c04:	08 94       	sec
    1c06:	e1 08       	sbc	r14, r1
    1c08:	f1 08       	sbc	r15, r1
    1c0a:	ec 9c       	mul	r14, r12
    1c0c:	c0 01       	movw	r24, r0
    1c0e:	ed 9c       	mul	r14, r13
    1c10:	90 0d       	add	r25, r0
    1c12:	fc 9c       	mul	r15, r12
    1c14:	90 0d       	add	r25, r0
    1c16:	11 24       	eor	r1, r1
    1c18:	28 0f       	add	r18, r24
    1c1a:	39 1f       	adc	r19, r25
    1c1c:	3f 83       	std	Y+7, r19	; 0x07
    1c1e:	2e 83       	std	Y+6, r18	; 0x06
    1c20:	bb 8e       	std	Y+27, r11	; 0x1b
    1c22:	ac 8e       	std	Y+28, r10	; 0x1c
    1c24:	8f ef       	ldi	r24, 0xFF	; 255
    1c26:	8d 8f       	std	Y+29, r24	; 0x1d
    1c28:	8e 8f       	std	Y+30, r24	; 0x1e
    1c2a:	ce 01       	movw	r24, r28
    1c2c:	08 96       	adiw	r24, 0x08	; 8
    1c2e:	20 dc       	rcall	.-1984   	; 0x1470 <vListInitialise>
    1c30:	ce 01       	movw	r24, r28
    1c32:	41 96       	adiw	r24, 0x11	; 17
    1c34:	1d dc       	rcall	.-1990   	; 0x1470 <vListInitialise>
    1c36:	9e 01       	movw	r18, r28
    1c38:	04 c0       	rjmp	.+8      	; 0x1c42 <xQueueCreate+0x9c>
    1c3a:	ce 01       	movw	r24, r28
    1c3c:	f3 db       	rcall	.-2074   	; 0x1424 <vPortFree>
    1c3e:	20 e0       	ldi	r18, 0x00	; 0
    1c40:	30 e0       	ldi	r19, 0x00	; 0
    1c42:	c9 01       	movw	r24, r18
    1c44:	df 91       	pop	r29
    1c46:	cf 91       	pop	r28
    1c48:	1f 91       	pop	r17
    1c4a:	0f 91       	pop	r16
    1c4c:	ff 90       	pop	r15
    1c4e:	ef 90       	pop	r14
    1c50:	df 90       	pop	r13
    1c52:	cf 90       	pop	r12
    1c54:	bf 90       	pop	r11
    1c56:	af 90       	pop	r10
    1c58:	08 95       	ret

00001c5a <xQueueCreateCountingSemaphore>:
    1c5a:	1f 93       	push	r17
    1c5c:	16 2f       	mov	r17, r22
    1c5e:	60 e0       	ldi	r22, 0x00	; 0
    1c60:	a2 df       	rcall	.-188    	; 0x1ba6 <xQueueCreate>
    1c62:	fc 01       	movw	r30, r24
    1c64:	00 97       	sbiw	r24, 0x00	; 0
    1c66:	09 f0       	breq	.+2      	; 0x1c6a <xQueueCreateCountingSemaphore+0x10>
    1c68:	12 8f       	std	Z+26, r17	; 0x1a
    1c6a:	cf 01       	movw	r24, r30
    1c6c:	1f 91       	pop	r17
    1c6e:	08 95       	ret

00001c70 <vTaskSuspendAll>:
    1c70:	80 91 c0 05 	lds	r24, 0x05C0
    1c74:	8f 5f       	subi	r24, 0xFF	; 255
    1c76:	80 93 c0 05 	sts	0x05C0, r24
    1c7a:	08 95       	ret

00001c7c <vTaskSwitchContext>:
    1c7c:	80 91 c0 05 	lds	r24, 0x05C0
    1c80:	88 23       	and	r24, r24
    1c82:	51 f0       	breq	.+20     	; 0x1c98 <vTaskSwitchContext+0x1c>
    1c84:	81 e0       	ldi	r24, 0x01	; 1
    1c86:	80 93 bc 05 	sts	0x05BC, r24
    1c8a:	08 95       	ret
    1c8c:	80 91 c1 05 	lds	r24, 0x05C1
    1c90:	81 50       	subi	r24, 0x01	; 1
    1c92:	80 93 c1 05 	sts	0x05C1, r24
    1c96:	01 c0       	rjmp	.+2      	; 0x1c9a <vTaskSwitchContext+0x1e>
    1c98:	99 e0       	ldi	r25, 0x09	; 9
    1c9a:	e0 91 c1 05 	lds	r30, 0x05C1
    1c9e:	e9 9f       	mul	r30, r25
    1ca0:	f0 01       	movw	r30, r0
    1ca2:	11 24       	eor	r1, r1
    1ca4:	e8 53       	subi	r30, 0x38	; 56
    1ca6:	fa 4f       	sbci	r31, 0xFA	; 250
    1ca8:	80 81       	ld	r24, Z
    1caa:	88 23       	and	r24, r24
    1cac:	79 f3       	breq	.-34     	; 0x1c8c <vTaskSwitchContext+0x10>
    1cae:	90 91 c1 05 	lds	r25, 0x05C1
    1cb2:	89 e0       	ldi	r24, 0x09	; 9
    1cb4:	98 9f       	mul	r25, r24
    1cb6:	d0 01       	movw	r26, r0
    1cb8:	11 24       	eor	r1, r1
    1cba:	a8 53       	subi	r26, 0x38	; 56
    1cbc:	ba 4f       	sbci	r27, 0xFA	; 250
    1cbe:	11 96       	adiw	r26, 0x01	; 1
    1cc0:	ed 91       	ld	r30, X+
    1cc2:	fc 91       	ld	r31, X
    1cc4:	12 97       	sbiw	r26, 0x02	; 2
    1cc6:	02 80       	ldd	r0, Z+2	; 0x02
    1cc8:	f3 81       	ldd	r31, Z+3	; 0x03
    1cca:	e0 2d       	mov	r30, r0
    1ccc:	12 96       	adiw	r26, 0x02	; 2
    1cce:	fc 93       	st	X, r31
    1cd0:	ee 93       	st	-X, r30
    1cd2:	11 97       	sbiw	r26, 0x01	; 1
    1cd4:	cd 01       	movw	r24, r26
    1cd6:	03 96       	adiw	r24, 0x03	; 3
    1cd8:	e8 17       	cp	r30, r24
    1cda:	f9 07       	cpc	r31, r25
    1cdc:	31 f4       	brne	.+12     	; 0x1cea <vTaskSwitchContext+0x6e>
    1cde:	82 81       	ldd	r24, Z+2	; 0x02
    1ce0:	93 81       	ldd	r25, Z+3	; 0x03
    1ce2:	12 96       	adiw	r26, 0x02	; 2
    1ce4:	9c 93       	st	X, r25
    1ce6:	8e 93       	st	-X, r24
    1ce8:	11 97       	sbiw	r26, 0x01	; 1
    1cea:	11 96       	adiw	r26, 0x01	; 1
    1cec:	ed 91       	ld	r30, X+
    1cee:	fc 91       	ld	r31, X
    1cf0:	12 97       	sbiw	r26, 0x02	; 2
    1cf2:	86 81       	ldd	r24, Z+6	; 0x06
    1cf4:	97 81       	ldd	r25, Z+7	; 0x07
    1cf6:	90 93 bb 05 	sts	0x05BB, r25
    1cfa:	80 93 ba 05 	sts	0x05BA, r24
    1cfe:	08 95       	ret

00001d00 <vTaskSetTimeOutState>:
    1d00:	fc 01       	movw	r30, r24
    1d02:	80 91 bd 05 	lds	r24, 0x05BD
    1d06:	80 83       	st	Z, r24
    1d08:	80 91 be 05 	lds	r24, 0x05BE
    1d0c:	90 91 bf 05 	lds	r25, 0x05BF
    1d10:	92 83       	std	Z+2, r25	; 0x02
    1d12:	81 83       	std	Z+1, r24	; 0x01
    1d14:	08 95       	ret

00001d16 <xTaskCheckForTimeOut>:
    1d16:	fc 01       	movw	r30, r24
    1d18:	db 01       	movw	r26, r22
    1d1a:	0f b6       	in	r0, 0x3f	; 63
    1d1c:	f8 94       	cli
    1d1e:	0f 92       	push	r0
    1d20:	90 91 bd 05 	lds	r25, 0x05BD
    1d24:	80 81       	ld	r24, Z
    1d26:	98 17       	cp	r25, r24
    1d28:	49 f0       	breq	.+18     	; 0x1d3c <xTaskCheckForTimeOut+0x26>
    1d2a:	20 91 be 05 	lds	r18, 0x05BE
    1d2e:	30 91 bf 05 	lds	r19, 0x05BF
    1d32:	81 81       	ldd	r24, Z+1	; 0x01
    1d34:	92 81       	ldd	r25, Z+2	; 0x02
    1d36:	28 17       	cp	r18, r24
    1d38:	39 07       	cpc	r19, r25
    1d3a:	18 f5       	brcc	.+70     	; 0x1d82 <xTaskCheckForTimeOut+0x6c>
    1d3c:	80 91 be 05 	lds	r24, 0x05BE
    1d40:	90 91 bf 05 	lds	r25, 0x05BF
    1d44:	21 81       	ldd	r18, Z+1	; 0x01
    1d46:	32 81       	ldd	r19, Z+2	; 0x02
    1d48:	4d 91       	ld	r20, X+
    1d4a:	5c 91       	ld	r21, X
    1d4c:	11 97       	sbiw	r26, 0x01	; 1
    1d4e:	82 1b       	sub	r24, r18
    1d50:	93 0b       	sbc	r25, r19
    1d52:	84 17       	cp	r24, r20
    1d54:	95 07       	cpc	r25, r21
    1d56:	a8 f4       	brcc	.+42     	; 0x1d82 <xTaskCheckForTimeOut+0x6c>
    1d58:	80 91 be 05 	lds	r24, 0x05BE
    1d5c:	90 91 bf 05 	lds	r25, 0x05BF
    1d60:	28 1b       	sub	r18, r24
    1d62:	39 0b       	sbc	r19, r25
    1d64:	24 0f       	add	r18, r20
    1d66:	35 1f       	adc	r19, r21
    1d68:	2d 93       	st	X+, r18
    1d6a:	3c 93       	st	X, r19
    1d6c:	80 91 bd 05 	lds	r24, 0x05BD
    1d70:	80 83       	st	Z, r24
    1d72:	80 91 be 05 	lds	r24, 0x05BE
    1d76:	90 91 bf 05 	lds	r25, 0x05BF
    1d7a:	92 83       	std	Z+2, r25	; 0x02
    1d7c:	81 83       	std	Z+1, r24	; 0x01
    1d7e:	80 e0       	ldi	r24, 0x00	; 0
    1d80:	01 c0       	rjmp	.+2      	; 0x1d84 <xTaskCheckForTimeOut+0x6e>
    1d82:	81 e0       	ldi	r24, 0x01	; 1
    1d84:	0f 90       	pop	r0
    1d86:	0f be       	out	0x3f, r0	; 63
    1d88:	08 95       	ret

00001d8a <vTaskMissedYield>:
    1d8a:	81 e0       	ldi	r24, 0x01	; 1
    1d8c:	80 93 bc 05 	sts	0x05BC, r24
    1d90:	08 95       	ret

00001d92 <xTaskRemoveFromEventList>:
    1d92:	0f 93       	push	r16
    1d94:	1f 93       	push	r17
    1d96:	cf 93       	push	r28
    1d98:	df 93       	push	r29
    1d9a:	fc 01       	movw	r30, r24
    1d9c:	05 80       	ldd	r0, Z+5	; 0x05
    1d9e:	f6 81       	ldd	r31, Z+6	; 0x06
    1da0:	e0 2d       	mov	r30, r0
    1da2:	06 81       	ldd	r16, Z+6	; 0x06
    1da4:	17 81       	ldd	r17, Z+7	; 0x07
    1da6:	e8 01       	movw	r28, r16
    1da8:	2c 96       	adiw	r28, 0x0c	; 12
    1daa:	ce 01       	movw	r24, r28
    1dac:	d3 db       	rcall	.-2138   	; 0x1554 <vListRemove>
    1dae:	80 91 c0 05 	lds	r24, 0x05C0
    1db2:	88 23       	and	r24, r24
    1db4:	a1 f4       	brne	.+40     	; 0x1dde <xTaskRemoveFromEventList+0x4c>
    1db6:	e8 01       	movw	r28, r16
    1db8:	22 96       	adiw	r28, 0x02	; 2
    1dba:	ce 01       	movw	r24, r28
    1dbc:	cb db       	rcall	.-2154   	; 0x1554 <vListRemove>
    1dbe:	d8 01       	movw	r26, r16
    1dc0:	56 96       	adiw	r26, 0x16	; 22
    1dc2:	9c 91       	ld	r25, X
    1dc4:	80 91 c1 05 	lds	r24, 0x05C1
    1dc8:	89 17       	cp	r24, r25
    1dca:	10 f4       	brcc	.+4      	; 0x1dd0 <xTaskRemoveFromEventList+0x3e>
    1dcc:	90 93 c1 05 	sts	0x05C1, r25
    1dd0:	89 e0       	ldi	r24, 0x09	; 9
    1dd2:	98 9f       	mul	r25, r24
    1dd4:	c0 01       	movw	r24, r0
    1dd6:	11 24       	eor	r1, r1
    1dd8:	88 53       	subi	r24, 0x38	; 56
    1dda:	9a 4f       	sbci	r25, 0xFA	; 250
    1ddc:	02 c0       	rjmp	.+4      	; 0x1de2 <xTaskRemoveFromEventList+0x50>
    1dde:	88 e3       	ldi	r24, 0x38	; 56
    1de0:	96 e0       	ldi	r25, 0x06	; 6
    1de2:	be 01       	movw	r22, r28
    1de4:	59 db       	rcall	.-2382   	; 0x1498 <vListInsertEnd>
    1de6:	e0 91 ba 05 	lds	r30, 0x05BA
    1dea:	f0 91 bb 05 	lds	r31, 0x05BB
    1dee:	20 e0       	ldi	r18, 0x00	; 0
    1df0:	d8 01       	movw	r26, r16
    1df2:	56 96       	adiw	r26, 0x16	; 22
    1df4:	9c 91       	ld	r25, X
    1df6:	86 89       	ldd	r24, Z+22	; 0x16
    1df8:	98 17       	cp	r25, r24
    1dfa:	08 f0       	brcs	.+2      	; 0x1dfe <xTaskRemoveFromEventList+0x6c>
    1dfc:	21 e0       	ldi	r18, 0x01	; 1
    1dfe:	82 2f       	mov	r24, r18
    1e00:	df 91       	pop	r29
    1e02:	cf 91       	pop	r28
    1e04:	1f 91       	pop	r17
    1e06:	0f 91       	pop	r16
    1e08:	08 95       	ret

00001e0a <vTaskIncrementTick>:
    1e0a:	ff 92       	push	r15
    1e0c:	0f 93       	push	r16
    1e0e:	1f 93       	push	r17
    1e10:	cf 93       	push	r28
    1e12:	df 93       	push	r29
    1e14:	80 91 c0 05 	lds	r24, 0x05C0
    1e18:	88 23       	and	r24, r24
    1e1a:	09 f0       	breq	.+2      	; 0x1e1e <vTaskIncrementTick+0x14>
    1e1c:	8c c0       	rjmp	.+280    	; 0x1f36 <vTaskIncrementTick+0x12c>
    1e1e:	80 91 be 05 	lds	r24, 0x05BE
    1e22:	90 91 bf 05 	lds	r25, 0x05BF
    1e26:	01 96       	adiw	r24, 0x01	; 1
    1e28:	90 93 bf 05 	sts	0x05BF, r25
    1e2c:	80 93 be 05 	sts	0x05BE, r24
    1e30:	80 91 be 05 	lds	r24, 0x05BE
    1e34:	90 91 bf 05 	lds	r25, 0x05BF
    1e38:	89 2b       	or	r24, r25
    1e3a:	79 f5       	brne	.+94     	; 0x1e9a <vTaskIncrementTick+0x90>
    1e3c:	20 91 34 06 	lds	r18, 0x0634
    1e40:	30 91 35 06 	lds	r19, 0x0635
    1e44:	80 91 36 06 	lds	r24, 0x0636
    1e48:	90 91 37 06 	lds	r25, 0x0637
    1e4c:	90 93 35 06 	sts	0x0635, r25
    1e50:	80 93 34 06 	sts	0x0634, r24
    1e54:	30 93 37 06 	sts	0x0637, r19
    1e58:	20 93 36 06 	sts	0x0636, r18
    1e5c:	80 91 bd 05 	lds	r24, 0x05BD
    1e60:	8f 5f       	subi	r24, 0xFF	; 255
    1e62:	80 93 bd 05 	sts	0x05BD, r24
    1e66:	e0 91 34 06 	lds	r30, 0x0634
    1e6a:	f0 91 35 06 	lds	r31, 0x0635
    1e6e:	80 81       	ld	r24, Z
    1e70:	88 23       	and	r24, r24
    1e72:	19 f4       	brne	.+6      	; 0x1e7a <vTaskIncrementTick+0x70>
    1e74:	8f ef       	ldi	r24, 0xFF	; 255
    1e76:	9f ef       	ldi	r25, 0xFF	; 255
    1e78:	0c c0       	rjmp	.+24     	; 0x1e92 <vTaskIncrementTick+0x88>
    1e7a:	e0 91 34 06 	lds	r30, 0x0634
    1e7e:	f0 91 35 06 	lds	r31, 0x0635
    1e82:	05 80       	ldd	r0, Z+5	; 0x05
    1e84:	f6 81       	ldd	r31, Z+6	; 0x06
    1e86:	e0 2d       	mov	r30, r0
    1e88:	06 80       	ldd	r0, Z+6	; 0x06
    1e8a:	f7 81       	ldd	r31, Z+7	; 0x07
    1e8c:	e0 2d       	mov	r30, r0
    1e8e:	82 81       	ldd	r24, Z+2	; 0x02
    1e90:	93 81       	ldd	r25, Z+3	; 0x03
    1e92:	90 93 a9 01 	sts	0x01A9, r25
    1e96:	80 93 a8 01 	sts	0x01A8, r24
    1e9a:	20 91 be 05 	lds	r18, 0x05BE
    1e9e:	30 91 bf 05 	lds	r19, 0x05BF
    1ea2:	80 91 a8 01 	lds	r24, 0x01A8
    1ea6:	90 91 a9 01 	lds	r25, 0x01A9
    1eaa:	28 17       	cp	r18, r24
    1eac:	39 07       	cpc	r19, r25
    1eae:	08 f4       	brcc	.+2      	; 0x1eb2 <vTaskIncrementTick+0xa8>
    1eb0:	47 c0       	rjmp	.+142    	; 0x1f40 <vTaskIncrementTick+0x136>
    1eb2:	89 e0       	ldi	r24, 0x09	; 9
    1eb4:	f8 2e       	mov	r15, r24
    1eb6:	e0 91 34 06 	lds	r30, 0x0634
    1eba:	f0 91 35 06 	lds	r31, 0x0635
    1ebe:	80 81       	ld	r24, Z
    1ec0:	88 23       	and	r24, r24
    1ec2:	39 f4       	brne	.+14     	; 0x1ed2 <vTaskIncrementTick+0xc8>
    1ec4:	8f ef       	ldi	r24, 0xFF	; 255
    1ec6:	9f ef       	ldi	r25, 0xFF	; 255
    1ec8:	90 93 a9 01 	sts	0x01A9, r25
    1ecc:	80 93 a8 01 	sts	0x01A8, r24
    1ed0:	37 c0       	rjmp	.+110    	; 0x1f40 <vTaskIncrementTick+0x136>
    1ed2:	e0 91 34 06 	lds	r30, 0x0634
    1ed6:	f0 91 35 06 	lds	r31, 0x0635
    1eda:	05 80       	ldd	r0, Z+5	; 0x05
    1edc:	f6 81       	ldd	r31, Z+6	; 0x06
    1ede:	e0 2d       	mov	r30, r0
    1ee0:	c6 81       	ldd	r28, Z+6	; 0x06
    1ee2:	d7 81       	ldd	r29, Z+7	; 0x07
    1ee4:	2a 81       	ldd	r18, Y+2	; 0x02
    1ee6:	3b 81       	ldd	r19, Y+3	; 0x03
    1ee8:	80 91 be 05 	lds	r24, 0x05BE
    1eec:	90 91 bf 05 	lds	r25, 0x05BF
    1ef0:	82 17       	cp	r24, r18
    1ef2:	93 07       	cpc	r25, r19
    1ef4:	28 f4       	brcc	.+10     	; 0x1f00 <vTaskIncrementTick+0xf6>
    1ef6:	30 93 a9 01 	sts	0x01A9, r19
    1efa:	20 93 a8 01 	sts	0x01A8, r18
    1efe:	20 c0       	rjmp	.+64     	; 0x1f40 <vTaskIncrementTick+0x136>
    1f00:	8e 01       	movw	r16, r28
    1f02:	0e 5f       	subi	r16, 0xFE	; 254
    1f04:	1f 4f       	sbci	r17, 0xFF	; 255
    1f06:	c8 01       	movw	r24, r16
    1f08:	25 db       	rcall	.-2486   	; 0x1554 <vListRemove>
    1f0a:	8c 89       	ldd	r24, Y+20	; 0x14
    1f0c:	9d 89       	ldd	r25, Y+21	; 0x15
    1f0e:	89 2b       	or	r24, r25
    1f10:	19 f0       	breq	.+6      	; 0x1f18 <vTaskIncrementTick+0x10e>
    1f12:	ce 01       	movw	r24, r28
    1f14:	0c 96       	adiw	r24, 0x0c	; 12
    1f16:	1e db       	rcall	.-2500   	; 0x1554 <vListRemove>
    1f18:	9e 89       	ldd	r25, Y+22	; 0x16
    1f1a:	80 91 c1 05 	lds	r24, 0x05C1
    1f1e:	89 17       	cp	r24, r25
    1f20:	10 f4       	brcc	.+4      	; 0x1f26 <vTaskIncrementTick+0x11c>
    1f22:	90 93 c1 05 	sts	0x05C1, r25
    1f26:	9f 9d       	mul	r25, r15
    1f28:	c0 01       	movw	r24, r0
    1f2a:	11 24       	eor	r1, r1
    1f2c:	88 53       	subi	r24, 0x38	; 56
    1f2e:	9a 4f       	sbci	r25, 0xFA	; 250
    1f30:	b8 01       	movw	r22, r16
    1f32:	b2 da       	rcall	.-2716   	; 0x1498 <vListInsertEnd>
    1f34:	c0 cf       	rjmp	.-128    	; 0x1eb6 <vTaskIncrementTick+0xac>
    1f36:	80 91 c2 05 	lds	r24, 0x05C2
    1f3a:	8f 5f       	subi	r24, 0xFF	; 255
    1f3c:	80 93 c2 05 	sts	0x05C2, r24
    1f40:	df 91       	pop	r29
    1f42:	cf 91       	pop	r28
    1f44:	1f 91       	pop	r17
    1f46:	0f 91       	pop	r16
    1f48:	ff 90       	pop	r15
    1f4a:	08 95       	ret

00001f4c <prvAddCurrentTaskToDelayedList>:
    1f4c:	cf 93       	push	r28
    1f4e:	df 93       	push	r29
    1f50:	ec 01       	movw	r28, r24
    1f52:	e0 91 ba 05 	lds	r30, 0x05BA
    1f56:	f0 91 bb 05 	lds	r31, 0x05BB
    1f5a:	93 83       	std	Z+3, r25	; 0x03
    1f5c:	82 83       	std	Z+2, r24	; 0x02
    1f5e:	80 91 be 05 	lds	r24, 0x05BE
    1f62:	90 91 bf 05 	lds	r25, 0x05BF
    1f66:	c8 17       	cp	r28, r24
    1f68:	d9 07       	cpc	r29, r25
    1f6a:	60 f4       	brcc	.+24     	; 0x1f84 <prvAddCurrentTaskToDelayedList+0x38>
    1f6c:	80 91 36 06 	lds	r24, 0x0636
    1f70:	90 91 37 06 	lds	r25, 0x0637
    1f74:	60 91 ba 05 	lds	r22, 0x05BA
    1f78:	70 91 bb 05 	lds	r23, 0x05BB
    1f7c:	6e 5f       	subi	r22, 0xFE	; 254
    1f7e:	7f 4f       	sbci	r23, 0xFF	; 255
    1f80:	b4 da       	rcall	.-2712   	; 0x14ea <vListInsert>
    1f82:	16 c0       	rjmp	.+44     	; 0x1fb0 <prvAddCurrentTaskToDelayedList+0x64>
    1f84:	80 91 34 06 	lds	r24, 0x0634
    1f88:	90 91 35 06 	lds	r25, 0x0635
    1f8c:	60 91 ba 05 	lds	r22, 0x05BA
    1f90:	70 91 bb 05 	lds	r23, 0x05BB
    1f94:	6e 5f       	subi	r22, 0xFE	; 254
    1f96:	7f 4f       	sbci	r23, 0xFF	; 255
    1f98:	a8 da       	rcall	.-2736   	; 0x14ea <vListInsert>
    1f9a:	80 91 a8 01 	lds	r24, 0x01A8
    1f9e:	90 91 a9 01 	lds	r25, 0x01A9
    1fa2:	c8 17       	cp	r28, r24
    1fa4:	d9 07       	cpc	r29, r25
    1fa6:	20 f4       	brcc	.+8      	; 0x1fb0 <prvAddCurrentTaskToDelayedList+0x64>
    1fa8:	d0 93 a9 01 	sts	0x01A9, r29
    1fac:	c0 93 a8 01 	sts	0x01A8, r28
    1fb0:	df 91       	pop	r29
    1fb2:	cf 91       	pop	r28
    1fb4:	08 95       	ret

00001fb6 <vTaskPlaceOnEventList>:
    1fb6:	0f 93       	push	r16
    1fb8:	1f 93       	push	r17
    1fba:	8b 01       	movw	r16, r22
    1fbc:	60 91 ba 05 	lds	r22, 0x05BA
    1fc0:	70 91 bb 05 	lds	r23, 0x05BB
    1fc4:	64 5f       	subi	r22, 0xF4	; 244
    1fc6:	7f 4f       	sbci	r23, 0xFF	; 255
    1fc8:	90 da       	rcall	.-2784   	; 0x14ea <vListInsert>
    1fca:	80 91 ba 05 	lds	r24, 0x05BA
    1fce:	90 91 bb 05 	lds	r25, 0x05BB
    1fd2:	02 96       	adiw	r24, 0x02	; 2
    1fd4:	bf da       	rcall	.-2690   	; 0x1554 <vListRemove>
    1fd6:	80 91 be 05 	lds	r24, 0x05BE
    1fda:	90 91 bf 05 	lds	r25, 0x05BF
    1fde:	80 0f       	add	r24, r16
    1fe0:	91 1f       	adc	r25, r17
    1fe2:	b4 df       	rcall	.-152    	; 0x1f4c <prvAddCurrentTaskToDelayedList>
    1fe4:	1f 91       	pop	r17
    1fe6:	0f 91       	pop	r16
    1fe8:	08 95       	ret

00001fea <xTaskResumeAll>:
    1fea:	cf 92       	push	r12
    1fec:	df 92       	push	r13
    1fee:	ff 92       	push	r15
    1ff0:	0f 93       	push	r16
    1ff2:	1f 93       	push	r17
    1ff4:	df 93       	push	r29
    1ff6:	cf 93       	push	r28
    1ff8:	0f 92       	push	r0
    1ffa:	cd b7       	in	r28, 0x3d	; 61
    1ffc:	de b7       	in	r29, 0x3e	; 62
    1ffe:	0f b6       	in	r0, 0x3f	; 63
    2000:	f8 94       	cli
    2002:	0f 92       	push	r0
    2004:	80 91 c0 05 	lds	r24, 0x05C0
    2008:	81 50       	subi	r24, 0x01	; 1
    200a:	80 93 c0 05 	sts	0x05C0, r24
    200e:	80 91 c0 05 	lds	r24, 0x05C0
    2012:	88 23       	and	r24, r24
    2014:	09 f0       	breq	.+2      	; 0x2018 <xTaskResumeAll+0x2e>
    2016:	53 c0       	rjmp	.+166    	; 0x20be <xTaskResumeAll+0xd4>
    2018:	80 91 c3 05 	lds	r24, 0x05C3
    201c:	88 23       	and	r24, r24
    201e:	09 f4       	brne	.+2      	; 0x2022 <xTaskResumeAll+0x38>
    2020:	4e c0       	rjmp	.+156    	; 0x20be <xTaskResumeAll+0xd4>
    2022:	19 82       	std	Y+1, r1	; 0x01
    2024:	99 e0       	ldi	r25, 0x09	; 9
    2026:	f9 2e       	mov	r15, r25
    2028:	2a c0       	rjmp	.+84     	; 0x207e <xTaskResumeAll+0x94>
    202a:	e0 91 3d 06 	lds	r30, 0x063D
    202e:	f0 91 3e 06 	lds	r31, 0x063E
    2032:	c6 80       	ldd	r12, Z+6	; 0x06
    2034:	d7 80       	ldd	r13, Z+7	; 0x07
    2036:	c6 01       	movw	r24, r12
    2038:	0c 96       	adiw	r24, 0x0c	; 12
    203a:	8c da       	rcall	.-2792   	; 0x1554 <vListRemove>
    203c:	86 01       	movw	r16, r12
    203e:	0e 5f       	subi	r16, 0xFE	; 254
    2040:	1f 4f       	sbci	r17, 0xFF	; 255
    2042:	c8 01       	movw	r24, r16
    2044:	87 da       	rcall	.-2802   	; 0x1554 <vListRemove>
    2046:	d6 01       	movw	r26, r12
    2048:	56 96       	adiw	r26, 0x16	; 22
    204a:	9c 91       	ld	r25, X
    204c:	80 91 c1 05 	lds	r24, 0x05C1
    2050:	89 17       	cp	r24, r25
    2052:	10 f4       	brcc	.+4      	; 0x2058 <xTaskResumeAll+0x6e>
    2054:	90 93 c1 05 	sts	0x05C1, r25
    2058:	9f 9d       	mul	r25, r15
    205a:	c0 01       	movw	r24, r0
    205c:	11 24       	eor	r1, r1
    205e:	88 53       	subi	r24, 0x38	; 56
    2060:	9a 4f       	sbci	r25, 0xFA	; 250
    2062:	b8 01       	movw	r22, r16
    2064:	19 da       	rcall	.-3022   	; 0x1498 <vListInsertEnd>
    2066:	e0 91 ba 05 	lds	r30, 0x05BA
    206a:	f0 91 bb 05 	lds	r31, 0x05BB
    206e:	d6 01       	movw	r26, r12
    2070:	56 96       	adiw	r26, 0x16	; 22
    2072:	9c 91       	ld	r25, X
    2074:	86 89       	ldd	r24, Z+22	; 0x16
    2076:	98 17       	cp	r25, r24
    2078:	10 f0       	brcs	.+4      	; 0x207e <xTaskResumeAll+0x94>
    207a:	b1 e0       	ldi	r27, 0x01	; 1
    207c:	b9 83       	std	Y+1, r27	; 0x01
    207e:	80 91 38 06 	lds	r24, 0x0638
    2082:	88 23       	and	r24, r24
    2084:	91 f6       	brne	.-92     	; 0x202a <xTaskResumeAll+0x40>
    2086:	80 91 c2 05 	lds	r24, 0x05C2
    208a:	88 23       	and	r24, r24
    208c:	39 f4       	brne	.+14     	; 0x209c <xTaskResumeAll+0xb2>
    208e:	0b c0       	rjmp	.+22     	; 0x20a6 <xTaskResumeAll+0xbc>
    2090:	bc de       	rcall	.-648    	; 0x1e0a <vTaskIncrementTick>
    2092:	80 91 c2 05 	lds	r24, 0x05C2
    2096:	81 50       	subi	r24, 0x01	; 1
    2098:	80 93 c2 05 	sts	0x05C2, r24
    209c:	80 91 c2 05 	lds	r24, 0x05C2
    20a0:	88 23       	and	r24, r24
    20a2:	b1 f7       	brne	.-20     	; 0x2090 <xTaskResumeAll+0xa6>
    20a4:	07 c0       	rjmp	.+14     	; 0x20b4 <xTaskResumeAll+0xca>
    20a6:	e9 81       	ldd	r30, Y+1	; 0x01
    20a8:	e1 30       	cpi	r30, 0x01	; 1
    20aa:	21 f0       	breq	.+8      	; 0x20b4 <xTaskResumeAll+0xca>
    20ac:	80 91 bc 05 	lds	r24, 0x05BC
    20b0:	81 30       	cpi	r24, 0x01	; 1
    20b2:	29 f4       	brne	.+10     	; 0x20be <xTaskResumeAll+0xd4>
    20b4:	10 92 bc 05 	sts	0x05BC, r1
    20b8:	4d db       	rcall	.-2406   	; 0x1754 <vPortYield>
    20ba:	81 e0       	ldi	r24, 0x01	; 1
    20bc:	01 c0       	rjmp	.+2      	; 0x20c0 <xTaskResumeAll+0xd6>
    20be:	80 e0       	ldi	r24, 0x00	; 0
    20c0:	0f 90       	pop	r0
    20c2:	0f be       	out	0x3f, r0	; 63
    20c4:	0f 90       	pop	r0
    20c6:	cf 91       	pop	r28
    20c8:	df 91       	pop	r29
    20ca:	1f 91       	pop	r17
    20cc:	0f 91       	pop	r16
    20ce:	ff 90       	pop	r15
    20d0:	df 90       	pop	r13
    20d2:	cf 90       	pop	r12
    20d4:	08 95       	ret

000020d6 <vTaskDelay>:
    20d6:	0f 93       	push	r16
    20d8:	1f 93       	push	r17
    20da:	cf 93       	push	r28
    20dc:	df 93       	push	r29
    20de:	ec 01       	movw	r28, r24
    20e0:	00 97       	sbiw	r24, 0x00	; 0
    20e2:	b1 f0       	breq	.+44     	; 0x2110 <vTaskDelay+0x3a>
    20e4:	80 91 c0 05 	lds	r24, 0x05C0
    20e8:	8f 5f       	subi	r24, 0xFF	; 255
    20ea:	80 93 c0 05 	sts	0x05C0, r24
    20ee:	00 91 be 05 	lds	r16, 0x05BE
    20f2:	10 91 bf 05 	lds	r17, 0x05BF
    20f6:	80 91 ba 05 	lds	r24, 0x05BA
    20fa:	90 91 bb 05 	lds	r25, 0x05BB
    20fe:	02 96       	adiw	r24, 0x02	; 2
    2100:	29 da       	rcall	.-2990   	; 0x1554 <vListRemove>
    2102:	ce 01       	movw	r24, r28
    2104:	80 0f       	add	r24, r16
    2106:	91 1f       	adc	r25, r17
    2108:	21 df       	rcall	.-446    	; 0x1f4c <prvAddCurrentTaskToDelayedList>
    210a:	6f df       	rcall	.-290    	; 0x1fea <xTaskResumeAll>
    210c:	88 23       	and	r24, r24
    210e:	09 f4       	brne	.+2      	; 0x2112 <vTaskDelay+0x3c>
    2110:	21 db       	rcall	.-2494   	; 0x1754 <vPortYield>
    2112:	df 91       	pop	r29
    2114:	cf 91       	pop	r28
    2116:	1f 91       	pop	r17
    2118:	0f 91       	pop	r16
    211a:	08 95       	ret

0000211c <prvIdleTask>:
    211c:	0f 93       	push	r16
    211e:	1f 93       	push	r17
    2120:	80 91 c5 05 	lds	r24, 0x05C5
    2124:	88 23       	and	r24, r24
    2126:	e1 f3       	breq	.-8      	; 0x2120 <prvIdleTask+0x4>
    2128:	80 91 c0 05 	lds	r24, 0x05C0
    212c:	8f 5f       	subi	r24, 0xFF	; 255
    212e:	80 93 c0 05 	sts	0x05C0, r24
    2132:	10 91 41 06 	lds	r17, 0x0641
    2136:	59 df       	rcall	.-334    	; 0x1fea <xTaskResumeAll>
    2138:	11 23       	and	r17, r17
    213a:	91 f3       	breq	.-28     	; 0x2120 <prvIdleTask+0x4>
    213c:	0f b6       	in	r0, 0x3f	; 63
    213e:	f8 94       	cli
    2140:	0f 92       	push	r0
    2142:	e0 91 46 06 	lds	r30, 0x0646
    2146:	f0 91 47 06 	lds	r31, 0x0647
    214a:	06 81       	ldd	r16, Z+6	; 0x06
    214c:	17 81       	ldd	r17, Z+7	; 0x07
    214e:	c8 01       	movw	r24, r16
    2150:	02 96       	adiw	r24, 0x02	; 2
    2152:	00 da       	rcall	.-3072   	; 0x1554 <vListRemove>
    2154:	80 91 c3 05 	lds	r24, 0x05C3
    2158:	81 50       	subi	r24, 0x01	; 1
    215a:	80 93 c3 05 	sts	0x05C3, r24
    215e:	80 91 c5 05 	lds	r24, 0x05C5
    2162:	81 50       	subi	r24, 0x01	; 1
    2164:	80 93 c5 05 	sts	0x05C5, r24
    2168:	0f 90       	pop	r0
    216a:	0f be       	out	0x3f, r0	; 63
    216c:	f8 01       	movw	r30, r16
    216e:	87 89       	ldd	r24, Z+23	; 0x17
    2170:	90 8d       	ldd	r25, Z+24	; 0x18
    2172:	58 d9       	rcall	.-3408   	; 0x1424 <vPortFree>
    2174:	c8 01       	movw	r24, r16
    2176:	56 d9       	rcall	.-3412   	; 0x1424 <vPortFree>
    2178:	d3 cf       	rjmp	.-90     	; 0x2120 <prvIdleTask+0x4>

0000217a <xTaskGenericCreate>:
    217a:	2f 92       	push	r2
    217c:	3f 92       	push	r3
    217e:	4f 92       	push	r4
    2180:	5f 92       	push	r5
    2182:	7f 92       	push	r7
    2184:	8f 92       	push	r8
    2186:	9f 92       	push	r9
    2188:	af 92       	push	r10
    218a:	bf 92       	push	r11
    218c:	cf 92       	push	r12
    218e:	df 92       	push	r13
    2190:	ef 92       	push	r14
    2192:	ff 92       	push	r15
    2194:	0f 93       	push	r16
    2196:	1f 93       	push	r17
    2198:	cf 93       	push	r28
    219a:	df 93       	push	r29
    219c:	1c 01       	movw	r2, r24
    219e:	4b 01       	movw	r8, r22
    21a0:	5a 01       	movw	r10, r20
    21a2:	29 01       	movw	r4, r18
    21a4:	70 2e       	mov	r7, r16
    21a6:	e6 01       	movw	r28, r12
    21a8:	81 e2       	ldi	r24, 0x21	; 33
    21aa:	90 e0       	ldi	r25, 0x00	; 0
    21ac:	3c d9       	rcall	.-3464   	; 0x1426 <pvPortMalloc>
    21ae:	6c 01       	movw	r12, r24
    21b0:	00 97       	sbiw	r24, 0x00	; 0
    21b2:	61 f0       	breq	.+24     	; 0x21cc <xTaskGenericCreate+0x52>
    21b4:	20 97       	sbiw	r28, 0x00	; 0
    21b6:	19 f4       	brne	.+6      	; 0x21be <xTaskGenericCreate+0x44>
    21b8:	c5 01       	movw	r24, r10
    21ba:	35 d9       	rcall	.-3478   	; 0x1426 <pvPortMalloc>
    21bc:	ec 01       	movw	r28, r24
    21be:	f6 01       	movw	r30, r12
    21c0:	d0 8f       	std	Z+24, r29	; 0x18
    21c2:	c7 8b       	std	Z+23, r28	; 0x17
    21c4:	20 97       	sbiw	r28, 0x00	; 0
    21c6:	21 f4       	brne	.+8      	; 0x21d0 <xTaskGenericCreate+0x56>
    21c8:	c6 01       	movw	r24, r12
    21ca:	2c d9       	rcall	.-3496   	; 0x1424 <vPortFree>
    21cc:	8f ef       	ldi	r24, 0xFF	; 255
    21ce:	b3 c0       	rjmp	.+358    	; 0x2336 <xTaskGenericCreate+0x1bc>
    21d0:	ce 01       	movw	r24, r28
    21d2:	65 ea       	ldi	r22, 0xA5	; 165
    21d4:	70 e0       	ldi	r23, 0x00	; 0
    21d6:	a5 01       	movw	r20, r10
    21d8:	f7 d3       	rcall	.+2030   	; 0x29c8 <memset>
    21da:	08 94       	sec
    21dc:	a1 08       	sbc	r10, r1
    21de:	b1 08       	sbc	r11, r1
    21e0:	f6 01       	movw	r30, r12
    21e2:	c7 89       	ldd	r28, Z+23	; 0x17
    21e4:	d0 8d       	ldd	r29, Z+24	; 0x18
    21e6:	ca 0d       	add	r28, r10
    21e8:	db 1d       	adc	r29, r11
    21ea:	c6 01       	movw	r24, r12
    21ec:	49 96       	adiw	r24, 0x19	; 25
    21ee:	b4 01       	movw	r22, r8
    21f0:	48 e0       	ldi	r20, 0x08	; 8
    21f2:	50 e0       	ldi	r21, 0x00	; 0
    21f4:	f0 d3       	rcall	.+2016   	; 0x29d6 <strncpy>
    21f6:	f6 01       	movw	r30, r12
    21f8:	10 a2       	std	Z+32, r1	; 0x20
    21fa:	07 2d       	mov	r16, r7
    21fc:	f9 e0       	ldi	r31, 0x09	; 9
    21fe:	f7 15       	cp	r31, r7
    2200:	08 f4       	brcc	.+2      	; 0x2204 <xTaskGenericCreate+0x8a>
    2202:	09 e0       	ldi	r16, 0x09	; 9
    2204:	f6 01       	movw	r30, r12
    2206:	06 8b       	std	Z+22, r16	; 0x16
    2208:	42 e0       	ldi	r20, 0x02	; 2
    220a:	a4 2e       	mov	r10, r20
    220c:	b1 2c       	mov	r11, r1
    220e:	ac 0c       	add	r10, r12
    2210:	bd 1c       	adc	r11, r13
    2212:	c5 01       	movw	r24, r10
    2214:	3d d9       	rcall	.-3462   	; 0x1490 <vListInitialiseItem>
    2216:	c6 01       	movw	r24, r12
    2218:	0c 96       	adiw	r24, 0x0c	; 12
    221a:	3a d9       	rcall	.-3468   	; 0x1490 <vListInitialiseItem>
    221c:	f6 01       	movw	r30, r12
    221e:	d1 86       	std	Z+9, r13	; 0x09
    2220:	c0 86       	std	Z+8, r12	; 0x08
    2222:	8a e0       	ldi	r24, 0x0A	; 10
    2224:	90 e0       	ldi	r25, 0x00	; 0
    2226:	80 1b       	sub	r24, r16
    2228:	91 09       	sbc	r25, r1
    222a:	95 87       	std	Z+13, r25	; 0x0d
    222c:	84 87       	std	Z+12, r24	; 0x0c
    222e:	d3 8a       	std	Z+19, r13	; 0x13
    2230:	c2 8a       	std	Z+18, r12	; 0x12
    2232:	ce 01       	movw	r24, r28
    2234:	b1 01       	movw	r22, r2
    2236:	a2 01       	movw	r20, r4
    2238:	b5 d9       	rcall	.-3222   	; 0x15a4 <pxPortInitialiseStack>
    223a:	f6 01       	movw	r30, r12
    223c:	91 83       	std	Z+1, r25	; 0x01
    223e:	80 83       	st	Z, r24
    2240:	e1 14       	cp	r14, r1
    2242:	f1 04       	cpc	r15, r1
    2244:	19 f0       	breq	.+6      	; 0x224c <xTaskGenericCreate+0xd2>
    2246:	f7 01       	movw	r30, r14
    2248:	d1 82       	std	Z+1, r13	; 0x01
    224a:	c0 82       	st	Z, r12
    224c:	0f b6       	in	r0, 0x3f	; 63
    224e:	f8 94       	cli
    2250:	0f 92       	push	r0
    2252:	80 91 c3 05 	lds	r24, 0x05C3
    2256:	8f 5f       	subi	r24, 0xFF	; 255
    2258:	80 93 c3 05 	sts	0x05C3, r24
    225c:	80 91 ba 05 	lds	r24, 0x05BA
    2260:	90 91 bb 05 	lds	r25, 0x05BB
    2264:	89 2b       	or	r24, r25
    2266:	51 f5       	brne	.+84     	; 0x22bc <xTaskGenericCreate+0x142>
    2268:	d0 92 bb 05 	sts	0x05BB, r13
    226c:	c0 92 ba 05 	sts	0x05BA, r12
    2270:	80 91 c3 05 	lds	r24, 0x05C3
    2274:	81 30       	cpi	r24, 0x01	; 1
    2276:	89 f5       	brne	.+98     	; 0x22da <xTaskGenericCreate+0x160>
    2278:	c8 ec       	ldi	r28, 0xC8	; 200
    227a:	d5 e0       	ldi	r29, 0x05	; 5
    227c:	ce 01       	movw	r24, r28
    227e:	f8 d8       	rcall	.-3600   	; 0x1470 <vListInitialise>
    2280:	29 96       	adiw	r28, 0x09	; 9
    2282:	f6 e0       	ldi	r31, 0x06	; 6
    2284:	c2 32       	cpi	r28, 0x22	; 34
    2286:	df 07       	cpc	r29, r31
    2288:	c9 f7       	brne	.-14     	; 0x227c <xTaskGenericCreate+0x102>
    228a:	32 e2       	ldi	r19, 0x22	; 34
    228c:	e3 2e       	mov	r14, r19
    228e:	36 e0       	ldi	r19, 0x06	; 6
    2290:	f3 2e       	mov	r15, r19
    2292:	c7 01       	movw	r24, r14
    2294:	ed d8       	rcall	.-3622   	; 0x1470 <vListInitialise>
    2296:	0b e2       	ldi	r16, 0x2B	; 43
    2298:	16 e0       	ldi	r17, 0x06	; 6
    229a:	c8 01       	movw	r24, r16
    229c:	e9 d8       	rcall	.-3630   	; 0x1470 <vListInitialise>
    229e:	88 e3       	ldi	r24, 0x38	; 56
    22a0:	96 e0       	ldi	r25, 0x06	; 6
    22a2:	e6 d8       	rcall	.-3636   	; 0x1470 <vListInitialise>
    22a4:	81 e4       	ldi	r24, 0x41	; 65
    22a6:	96 e0       	ldi	r25, 0x06	; 6
    22a8:	e3 d8       	rcall	.-3642   	; 0x1470 <vListInitialise>
    22aa:	f0 92 35 06 	sts	0x0635, r15
    22ae:	e0 92 34 06 	sts	0x0634, r14
    22b2:	10 93 37 06 	sts	0x0637, r17
    22b6:	00 93 36 06 	sts	0x0636, r16
    22ba:	0f c0       	rjmp	.+30     	; 0x22da <xTaskGenericCreate+0x160>
    22bc:	80 91 c4 05 	lds	r24, 0x05C4
    22c0:	88 23       	and	r24, r24
    22c2:	59 f4       	brne	.+22     	; 0x22da <xTaskGenericCreate+0x160>
    22c4:	e0 91 ba 05 	lds	r30, 0x05BA
    22c8:	f0 91 bb 05 	lds	r31, 0x05BB
    22cc:	86 89       	ldd	r24, Z+22	; 0x16
    22ce:	78 16       	cp	r7, r24
    22d0:	20 f0       	brcs	.+8      	; 0x22da <xTaskGenericCreate+0x160>
    22d2:	d0 92 bb 05 	sts	0x05BB, r13
    22d6:	c0 92 ba 05 	sts	0x05BA, r12
    22da:	f6 01       	movw	r30, r12
    22dc:	96 89       	ldd	r25, Z+22	; 0x16
    22de:	80 91 c7 05 	lds	r24, 0x05C7
    22e2:	89 17       	cp	r24, r25
    22e4:	10 f4       	brcc	.+4      	; 0x22ea <xTaskGenericCreate+0x170>
    22e6:	90 93 c7 05 	sts	0x05C7, r25
    22ea:	80 91 c6 05 	lds	r24, 0x05C6
    22ee:	8f 5f       	subi	r24, 0xFF	; 255
    22f0:	80 93 c6 05 	sts	0x05C6, r24
    22f4:	f6 01       	movw	r30, r12
    22f6:	96 89       	ldd	r25, Z+22	; 0x16
    22f8:	80 91 c1 05 	lds	r24, 0x05C1
    22fc:	89 17       	cp	r24, r25
    22fe:	10 f4       	brcc	.+4      	; 0x2304 <xTaskGenericCreate+0x18a>
    2300:	90 93 c1 05 	sts	0x05C1, r25
    2304:	f6 01       	movw	r30, r12
    2306:	86 89       	ldd	r24, Z+22	; 0x16
    2308:	29 e0       	ldi	r18, 0x09	; 9
    230a:	82 9f       	mul	r24, r18
    230c:	c0 01       	movw	r24, r0
    230e:	11 24       	eor	r1, r1
    2310:	88 53       	subi	r24, 0x38	; 56
    2312:	9a 4f       	sbci	r25, 0xFA	; 250
    2314:	b5 01       	movw	r22, r10
    2316:	c0 d8       	rcall	.-3712   	; 0x1498 <vListInsertEnd>
    2318:	0f 90       	pop	r0
    231a:	0f be       	out	0x3f, r0	; 63
    231c:	80 91 c4 05 	lds	r24, 0x05C4
    2320:	88 23       	and	r24, r24
    2322:	41 f0       	breq	.+16     	; 0x2334 <xTaskGenericCreate+0x1ba>
    2324:	e0 91 ba 05 	lds	r30, 0x05BA
    2328:	f0 91 bb 05 	lds	r31, 0x05BB
    232c:	86 89       	ldd	r24, Z+22	; 0x16
    232e:	87 15       	cp	r24, r7
    2330:	08 f4       	brcc	.+2      	; 0x2334 <xTaskGenericCreate+0x1ba>
    2332:	10 da       	rcall	.-3040   	; 0x1754 <vPortYield>
    2334:	81 e0       	ldi	r24, 0x01	; 1
    2336:	df 91       	pop	r29
    2338:	cf 91       	pop	r28
    233a:	1f 91       	pop	r17
    233c:	0f 91       	pop	r16
    233e:	ff 90       	pop	r15
    2340:	ef 90       	pop	r14
    2342:	df 90       	pop	r13
    2344:	cf 90       	pop	r12
    2346:	bf 90       	pop	r11
    2348:	af 90       	pop	r10
    234a:	9f 90       	pop	r9
    234c:	8f 90       	pop	r8
    234e:	7f 90       	pop	r7
    2350:	5f 90       	pop	r5
    2352:	4f 90       	pop	r4
    2354:	3f 90       	pop	r3
    2356:	2f 90       	pop	r2
    2358:	08 95       	ret

0000235a <vTaskStartScheduler>:
    235a:	af 92       	push	r10
    235c:	bf 92       	push	r11
    235e:	cf 92       	push	r12
    2360:	df 92       	push	r13
    2362:	ef 92       	push	r14
    2364:	ff 92       	push	r15
    2366:	0f 93       	push	r16
    2368:	8e e8       	ldi	r24, 0x8E	; 142
    236a:	90 e1       	ldi	r25, 0x10	; 16
    236c:	60 e6       	ldi	r22, 0x60	; 96
    236e:	70 e0       	ldi	r23, 0x00	; 0
    2370:	44 e6       	ldi	r20, 0x64	; 100
    2372:	50 e0       	ldi	r21, 0x00	; 0
    2374:	20 e0       	ldi	r18, 0x00	; 0
    2376:	30 e0       	ldi	r19, 0x00	; 0
    2378:	00 e0       	ldi	r16, 0x00	; 0
    237a:	ee 24       	eor	r14, r14
    237c:	ff 24       	eor	r15, r15
    237e:	cc 24       	eor	r12, r12
    2380:	dd 24       	eor	r13, r13
    2382:	aa 24       	eor	r10, r10
    2384:	bb 24       	eor	r11, r11
    2386:	f9 de       	rcall	.-526    	; 0x217a <xTaskGenericCreate>
    2388:	81 30       	cpi	r24, 0x01	; 1
    238a:	41 f4       	brne	.+16     	; 0x239c <vTaskStartScheduler+0x42>
    238c:	f8 94       	cli
    238e:	80 93 c4 05 	sts	0x05C4, r24
    2392:	10 92 bf 05 	sts	0x05BF, r1
    2396:	10 92 be 05 	sts	0x05BE, r1
    239a:	4c d9       	rcall	.-3432   	; 0x1634 <xPortStartScheduler>
    239c:	0f 91       	pop	r16
    239e:	ff 90       	pop	r15
    23a0:	ef 90       	pop	r14
    23a2:	df 90       	pop	r13
    23a4:	cf 90       	pop	r12
    23a6:	bf 90       	pop	r11
    23a8:	af 90       	pop	r10
    23aa:	08 95       	ret

000023ac <controlDoor>:
    23ac:	80 91 be 01 	lds	r24, 0x01BE
    23b0:	88 23       	and	r24, r24
    23b2:	a1 f0       	breq	.+40     	; 0x23dc <controlDoor+0x30>
    23b4:	a8 9a       	sbi	0x15, 0	; 21
    23b6:	a9 98       	cbi	0x15, 1	; 21
    23b8:	80 ed       	ldi	r24, 0xD0	; 208
    23ba:	97 e0       	ldi	r25, 0x07	; 7
    23bc:	8c de       	rcall	.-744    	; 0x20d6 <vTaskDelay>
    23be:	a8 98       	cbi	0x15, 0	; 21
    23c0:	a9 9a       	sbi	0x15, 1	; 21
    23c2:	80 ed       	ldi	r24, 0xD0	; 208
    23c4:	97 e0       	ldi	r25, 0x07	; 7
    23c6:	87 de       	rcall	.-754    	; 0x20d6 <vTaskDelay>
    23c8:	a9 98       	cbi	0x15, 1	; 21
    23ca:	aa 9a       	sbi	0x15, 2	; 21
    23cc:	80 ed       	ldi	r24, 0xD0	; 208
    23ce:	97 e0       	ldi	r25, 0x07	; 7
    23d0:	82 de       	rcall	.-764    	; 0x20d6 <vTaskDelay>
    23d2:	a9 9a       	sbi	0x15, 1	; 21
    23d4:	aa 98       	cbi	0x15, 2	; 21
    23d6:	10 92 be 01 	sts	0x01BE, r1
    23da:	08 95       	ret
    23dc:	a9 9a       	sbi	0x15, 1	; 21
    23de:	a8 98       	cbi	0x15, 0	; 21
    23e0:	aa 98       	cbi	0x15, 2	; 21
    23e2:	08 95       	ret

000023e4 <displayDoorState>:
    23e4:	81 e0       	ldi	r24, 0x01	; 1
    23e6:	60 e0       	ldi	r22, 0x00	; 0
    23e8:	0e 94 a5 09 	call	0x134a	; 0x134a <HCLCD_VidSetPosition_4BitsMode>
    23ec:	85 e6       	ldi	r24, 0x65	; 101
    23ee:	90 e0       	ldi	r25, 0x00	; 0
    23f0:	0e 94 77 09 	call	0x12ee	; 0x12ee <HCLCD_VidWriteString_4Bits>
    23f4:	80 91 be 01 	lds	r24, 0x01BE
    23f8:	88 23       	and	r24, r24
    23fa:	39 f0       	breq	.+14     	; 0x240a <displayDoorState+0x26>
    23fc:	81 e0       	ldi	r24, 0x01	; 1
    23fe:	63 e0       	ldi	r22, 0x03	; 3
    2400:	0e 94 a5 09 	call	0x134a	; 0x134a <HCLCD_VidSetPosition_4BitsMode>
    2404:	89 e6       	ldi	r24, 0x69	; 105
    2406:	90 e0       	ldi	r25, 0x00	; 0
    2408:	06 c0       	rjmp	.+12     	; 0x2416 <displayDoorState+0x32>
    240a:	81 e0       	ldi	r24, 0x01	; 1
    240c:	63 e0       	ldi	r22, 0x03	; 3
    240e:	0e 94 a5 09 	call	0x134a	; 0x134a <HCLCD_VidSetPosition_4BitsMode>
    2412:	8f e6       	ldi	r24, 0x6F	; 111
    2414:	90 e0       	ldi	r25, 0x00	; 0
    2416:	0c 94 77 09 	jmp	0x12ee	; 0x12ee <HCLCD_VidWriteString_4Bits>

0000241a <displayFireState>:
    241a:	82 e0       	ldi	r24, 0x02	; 2
    241c:	60 e0       	ldi	r22, 0x00	; 0
    241e:	0e 94 a5 09 	call	0x134a	; 0x134a <HCLCD_VidSetPosition_4BitsMode>
    2422:	80 91 bf 01 	lds	r24, 0x01BF
    2426:	88 23       	and	r24, r24
    2428:	41 f0       	breq	.+16     	; 0x243a <displayFireState+0x20>
    242a:	85 e0       	ldi	r24, 0x05	; 5
    242c:	62 e0       	ldi	r22, 0x02	; 2
    242e:	41 e0       	ldi	r20, 0x01	; 1
    2430:	0e 94 15 07 	call	0xe2a	; 0xe2a <MDIO_Error_State_SetPinValue>
    2434:	85 e7       	ldi	r24, 0x75	; 117
    2436:	90 e0       	ldi	r25, 0x00	; 0
    2438:	0b c0       	rjmp	.+22     	; 0x2450 <displayFireState+0x36>
    243a:	80 91 bd 01 	lds	r24, 0x01BD
    243e:	88 23       	and	r24, r24
    2440:	29 f4       	brne	.+10     	; 0x244c <displayFireState+0x32>
    2442:	85 e0       	ldi	r24, 0x05	; 5
    2444:	62 e0       	ldi	r22, 0x02	; 2
    2446:	40 e0       	ldi	r20, 0x00	; 0
    2448:	0e 94 15 07 	call	0xe2a	; 0xe2a <MDIO_Error_State_SetPinValue>
    244c:	8c e7       	ldi	r24, 0x7C	; 124
    244e:	90 e0       	ldi	r25, 0x00	; 0
    2450:	0c 94 77 09 	jmp	0x12ee	; 0x12ee <HCLCD_VidWriteString_4Bits>

00002454 <displayEntryPasswordSecurity>:
    2454:	82 e0       	ldi	r24, 0x02	; 2
    2456:	68 e0       	ldi	r22, 0x08	; 8
    2458:	0e 94 a5 09 	call	0x134a	; 0x134a <HCLCD_VidSetPosition_4BitsMode>
    245c:	80 91 bd 01 	lds	r24, 0x01BD
    2460:	88 23       	and	r24, r24
    2462:	c1 f0       	breq	.+48     	; 0x2494 <displayEntryPasswordSecurity+0x40>
    2464:	83 e8       	ldi	r24, 0x83	; 131
    2466:	90 e0       	ldi	r25, 0x00	; 0
    2468:	0e 94 77 09 	call	0x12ee	; 0x12ee <HCLCD_VidWriteString_4Bits>
    246c:	85 e0       	ldi	r24, 0x05	; 5
    246e:	62 e0       	ldi	r22, 0x02	; 2
    2470:	41 e0       	ldi	r20, 0x01	; 1
    2472:	0e 94 15 07 	call	0xe2a	; 0xe2a <MDIO_Error_State_SetPinValue>
    2476:	88 eb       	ldi	r24, 0xB8	; 184
    2478:	9b e0       	ldi	r25, 0x0B	; 11
    247a:	2d de       	rcall	.-934    	; 0x20d6 <vTaskDelay>
    247c:	80 91 bf 01 	lds	r24, 0x01BF
    2480:	88 23       	and	r24, r24
    2482:	29 f4       	brne	.+10     	; 0x248e <displayEntryPasswordSecurity+0x3a>
    2484:	85 e0       	ldi	r24, 0x05	; 5
    2486:	62 e0       	ldi	r22, 0x02	; 2
    2488:	40 e0       	ldi	r20, 0x00	; 0
    248a:	0e 94 15 07 	call	0xe2a	; 0xe2a <MDIO_Error_State_SetPinValue>
    248e:	10 92 bd 01 	sts	0x01BD, r1
    2492:	08 95       	ret
    2494:	8c e8       	ldi	r24, 0x8C	; 140
    2496:	90 e0       	ldi	r25, 0x00	; 0
    2498:	0e 94 77 09 	call	0x12ee	; 0x12ee <HCLCD_VidWriteString_4Bits>
    249c:	60 91 ba 01 	lds	r22, 0x01BA
    24a0:	70 e0       	ldi	r23, 0x00	; 0
    24a2:	80 e0       	ldi	r24, 0x00	; 0
    24a4:	90 e0       	ldi	r25, 0x00	; 0
    24a6:	0e 94 10 09 	call	0x1220	; 0x1220 <HCLCD_VidWriteNumber_4Bits>
    24aa:	82 e9       	ldi	r24, 0x92	; 146
    24ac:	90 e0       	ldi	r25, 0x00	; 0
    24ae:	0c 94 77 09 	jmp	0x12ee	; 0x12ee <HCLCD_VidWriteString_4Bits>

000024b2 <displayTemperatureValue>:
    24b2:	81 e0       	ldi	r24, 0x01	; 1
    24b4:	6a e0       	ldi	r22, 0x0A	; 10
    24b6:	0e 94 a5 09 	call	0x134a	; 0x134a <HCLCD_VidSetPosition_4BitsMode>
    24ba:	85 e9       	ldi	r24, 0x95	; 149
    24bc:	90 e0       	ldi	r25, 0x00	; 0
    24be:	0e 94 77 09 	call	0x12ee	; 0x12ee <HCLCD_VidWriteString_4Bits>
    24c2:	60 91 ae 01 	lds	r22, 0x01AE
    24c6:	70 e0       	ldi	r23, 0x00	; 0
    24c8:	80 e0       	ldi	r24, 0x00	; 0
    24ca:	90 e0       	ldi	r25, 0x00	; 0
    24cc:	0e 94 10 09 	call	0x1220	; 0x1220 <HCLCD_VidWriteNumber_4Bits>
    24d0:	89 e9       	ldi	r24, 0x99	; 153
    24d2:	90 e0       	ldi	r25, 0x00	; 0
    24d4:	0e 94 77 09 	call	0x12ee	; 0x12ee <HCLCD_VidWriteString_4Bits>
    24d8:	80 91 ae 01 	lds	r24, 0x01AE
    24dc:	8a 30       	cpi	r24, 0x0A	; 10
    24de:	20 f4       	brcc	.+8      	; 0x24e8 <displayTemperatureValue+0x36>
    24e0:	8b e9       	ldi	r24, 0x9B	; 155
    24e2:	90 e0       	ldi	r25, 0x00	; 0
    24e4:	0c 94 77 09 	jmp	0x12ee	; 0x12ee <HCLCD_VidWriteString_4Bits>
    24e8:	84 36       	cpi	r24, 0x64	; 100
    24ea:	20 f4       	brcc	.+8      	; 0x24f4 <displayTemperatureValue+0x42>
    24ec:	8e e9       	ldi	r24, 0x9E	; 158
    24ee:	90 e0       	ldi	r25, 0x00	; 0
    24f0:	0c 94 77 09 	jmp	0x12ee	; 0x12ee <HCLCD_VidWriteString_4Bits>
    24f4:	08 95       	ret

000024f6 <taskDisplaySystemState>:
    24f6:	76 df       	rcall	.-276    	; 0x23e4 <displayDoorState>
    24f8:	dc df       	rcall	.-72     	; 0x24b2 <displayTemperatureValue>
    24fa:	8f df       	rcall	.-226    	; 0x241a <displayFireState>
    24fc:	ab df       	rcall	.-170    	; 0x2454 <displayEntryPasswordSecurity>
    24fe:	88 ec       	ldi	r24, 0xC8	; 200
    2500:	90 e0       	ldi	r25, 0x00	; 0
    2502:	e9 dd       	rcall	.-1070   	; 0x20d6 <vTaskDelay>
    2504:	f8 cf       	rjmp	.-16     	; 0x24f6 <taskDisplaySystemState>

00002506 <System_Init>:
    2506:	1f 93       	push	r17
    2508:	18 2f       	mov	r17, r24
    250a:	0e 94 bb 09 	call	0x1376	; 0x1376 <HCLCD_Vid4Bits_Init>
    250e:	0e 94 91 06 	call	0xd22	; 0xd22 <MGIE_VidEnable>
    2512:	8a eb       	ldi	r24, 0xBA	; 186
    2514:	92 e1       	ldi	r25, 0x12	; 18
    2516:	0e 94 1f 08 	call	0x103e	; 0x103e <MADC_VidSetCallBack>
    251a:	0e 94 10 08 	call	0x1020	; 0x1020 <MADC_VidADCInterruptEnable>
    251e:	0e 94 05 08 	call	0x100a	; 0x100a <MADC_VidInit>
    2522:	81 2f       	mov	r24, r17
    2524:	0e 94 12 08 	call	0x1024	; 0x1024 <MADC_u16ADC_StartConversion_With_Interrupt>
    2528:	80 e0       	ldi	r24, 0x00	; 0
    252a:	60 e0       	ldi	r22, 0x00	; 0
    252c:	40 e0       	ldi	r20, 0x00	; 0
    252e:	0e 94 95 06 	call	0xd2a	; 0xd2a <MDIO_Error_State_SetPinDirection>
    2532:	87 e0       	ldi	r24, 0x07	; 7
    2534:	60 e0       	ldi	r22, 0x00	; 0
    2536:	40 e0       	ldi	r20, 0x00	; 0
    2538:	0e 94 95 06 	call	0xd2a	; 0xd2a <MDIO_Error_State_SetPinDirection>
    253c:	80 e0       	ldi	r24, 0x00	; 0
    253e:	62 e0       	ldi	r22, 0x02	; 2
    2540:	41 e0       	ldi	r20, 0x01	; 1
    2542:	0e 94 95 06 	call	0xd2a	; 0xd2a <MDIO_Error_State_SetPinDirection>
    2546:	81 e0       	ldi	r24, 0x01	; 1
    2548:	62 e0       	ldi	r22, 0x02	; 2
    254a:	41 e0       	ldi	r20, 0x01	; 1
    254c:	0e 94 95 06 	call	0xd2a	; 0xd2a <MDIO_Error_State_SetPinDirection>
    2550:	82 e0       	ldi	r24, 0x02	; 2
    2552:	62 e0       	ldi	r22, 0x02	; 2
    2554:	41 e0       	ldi	r20, 0x01	; 1
    2556:	0e 94 95 06 	call	0xd2a	; 0xd2a <MDIO_Error_State_SetPinDirection>
    255a:	85 e0       	ldi	r24, 0x05	; 5
    255c:	62 e0       	ldi	r22, 0x02	; 2
    255e:	41 e0       	ldi	r20, 0x01	; 1
    2560:	0e 94 95 06 	call	0xd2a	; 0xd2a <MDIO_Error_State_SetPinDirection>
    2564:	0e 94 ab 08 	call	0x1156	; 0x1156 <HKPD_VidInit>
    2568:	0e 94 0e 0a 	call	0x141c	; 0x141c <H_DcMotorInit>
    256c:	0e 94 02 0a 	call	0x1404	; 0x1404 <H_DcMotorPotInit>
    2570:	1f 91       	pop	r17
    2572:	08 95       	ret

00002574 <ADC_SetNotification>:
    2574:	80 91 51 06 	lds	r24, 0x0651
    2578:	90 91 52 06 	lds	r25, 0x0652
    257c:	60 e0       	ldi	r22, 0x00	; 0
    257e:	70 e0       	ldi	r23, 0x00	; 0
    2580:	40 e0       	ldi	r20, 0x00	; 0
    2582:	50 e0       	ldi	r21, 0x00	; 0
    2584:	20 e0       	ldi	r18, 0x00	; 0
    2586:	79 ca       	rjmp	.-2830   	; 0x1a7a <xQueueGenericSend>

00002588 <taskControlTemperature>:
    2588:	60 91 aa 01 	lds	r22, 0x01AA
    258c:	70 91 ab 01 	lds	r23, 0x01AB
    2590:	80 e0       	ldi	r24, 0x00	; 0
    2592:	90 e0       	ldi	r25, 0x00	; 0
    2594:	0e 94 89 03 	call	0x712	; 0x712 <__floatunsisf>
    2598:	20 e0       	ldi	r18, 0x00	; 0
    259a:	30 e0       	ldi	r19, 0x00	; 0
    259c:	4a ef       	ldi	r20, 0xFA	; 250
    259e:	53 e4       	ldi	r21, 0x43	; 67
    25a0:	0e 94 12 02 	call	0x424	; 0x424 <__mulsf3>
    25a4:	20 e0       	ldi	r18, 0x00	; 0
    25a6:	30 e0       	ldi	r19, 0x00	; 0
    25a8:	40 e8       	ldi	r20, 0x80	; 128
    25aa:	5a e3       	ldi	r21, 0x3A	; 58
    25ac:	0e 94 12 02 	call	0x424	; 0x424 <__mulsf3>
    25b0:	0e 94 48 00 	call	0x90	; 0x90 <__fixunssfsi>
    25b4:	70 e0       	ldi	r23, 0x00	; 0
    25b6:	80 e0       	ldi	r24, 0x00	; 0
    25b8:	90 e0       	ldi	r25, 0x00	; 0
    25ba:	0e 94 89 03 	call	0x712	; 0x712 <__floatunsisf>
    25be:	89 d1       	rcall	.+786    	; 0x28d2 <round>
    25c0:	0e 94 48 00 	call	0x90	; 0x90 <__fixunssfsi>
    25c4:	60 93 ae 01 	sts	0x01AE, r22
    25c8:	20 91 ac 01 	lds	r18, 0x01AC
    25cc:	26 17       	cp	r18, r22
    25ce:	20 f4       	brcc	.+8      	; 0x25d8 <taskControlTemperature+0x50>
    25d0:	81 e0       	ldi	r24, 0x01	; 1
    25d2:	0e 94 0a 0a 	call	0x1414	; 0x1414 <H_DcMotorStart>
    25d6:	02 c0       	rjmp	.+4      	; 0x25dc <taskControlTemperature+0x54>
    25d8:	0e 94 06 0a 	call	0x140c	; 0x140c <H_DcMotorStop>
    25dc:	8f e0       	ldi	r24, 0x0F	; 15
    25de:	90 e0       	ldi	r25, 0x00	; 0
    25e0:	7a dd       	rcall	.-1292   	; 0x20d6 <vTaskDelay>
    25e2:	d2 cf       	rjmp	.-92     	; 0x2588 <taskControlTemperature>

000025e4 <taskControlGasLevel>:
    25e4:	60 91 b3 01 	lds	r22, 0x01B3
    25e8:	70 e0       	ldi	r23, 0x00	; 0
    25ea:	80 e0       	ldi	r24, 0x00	; 0
    25ec:	90 e0       	ldi	r25, 0x00	; 0
    25ee:	20 91 b0 01 	lds	r18, 0x01B0
    25f2:	30 91 b1 01 	lds	r19, 0x01B1
    25f6:	40 e0       	ldi	r20, 0x00	; 0
    25f8:	50 e0       	ldi	r21, 0x00	; 0
    25fa:	f3 d0       	rcall	.+486    	; 0x27e2 <__mulsi3>
    25fc:	0e 94 89 03 	call	0x712	; 0x712 <__floatunsisf>
    2600:	20 e0       	ldi	r18, 0x00	; 0
    2602:	30 e0       	ldi	r19, 0x00	; 0
    2604:	40 e8       	ldi	r20, 0x80	; 128
    2606:	5a e3       	ldi	r21, 0x3A	; 58
    2608:	0e 94 12 02 	call	0x424	; 0x424 <__mulsf3>
    260c:	0e 94 48 00 	call	0x90	; 0x90 <__fixunssfsi>
    2610:	60 93 b4 01 	sts	0x01B4, r22
    2614:	20 91 b2 01 	lds	r18, 0x01B2
    2618:	62 17       	cp	r22, r18
    261a:	38 f0       	brcs	.+14     	; 0x262a <taskControlGasLevel+0x46>
    261c:	81 e0       	ldi	r24, 0x01	; 1
    261e:	0e 94 fe 09 	call	0x13fc	; 0x13fc <H_DcMotorPotStart>
    2622:	81 e0       	ldi	r24, 0x01	; 1
    2624:	80 93 bf 01 	sts	0x01BF, r24
    2628:	04 c0       	rjmp	.+8      	; 0x2632 <taskControlGasLevel+0x4e>
    262a:	10 92 bf 01 	sts	0x01BF, r1
    262e:	0e 94 fa 09 	call	0x13f4	; 0x13f4 <H_DcMotorPotStop>
    2632:	8f e0       	ldi	r24, 0x0F	; 15
    2634:	90 e0       	ldi	r25, 0x00	; 0
    2636:	4f dd       	rcall	.-1378   	; 0x20d6 <vTaskDelay>
    2638:	d5 cf       	rjmp	.-86     	; 0x25e4 <taskControlGasLevel>

0000263a <taskReadSensors>:
    263a:	80 91 51 06 	lds	r24, 0x0651
    263e:	90 91 52 06 	lds	r25, 0x0652
    2642:	60 e0       	ldi	r22, 0x00	; 0
    2644:	70 e0       	ldi	r23, 0x00	; 0
    2646:	45 e0       	ldi	r20, 0x05	; 5
    2648:	50 e0       	ldi	r21, 0x00	; 0
    264a:	20 e0       	ldi	r18, 0x00	; 0
    264c:	58 d9       	rcall	.-3408   	; 0x18fe <xQueueGenericReceive>
    264e:	81 30       	cpi	r24, 0x01	; 1
    2650:	09 f5       	brne	.+66     	; 0x2694 <taskReadSensors+0x5a>
    2652:	90 91 4a 06 	lds	r25, 0x064A
    2656:	80 91 b5 01 	lds	r24, 0x01B5
    265a:	98 17       	cp	r25, r24
    265c:	49 f4       	brne	.+18     	; 0x2670 <taskReadSensors+0x36>
    265e:	0e 94 1b 08 	call	0x1036	; 0x1036 <MADC_u16ADCRead>
    2662:	90 93 b1 01 	sts	0x01B1, r25
    2666:	80 93 b0 01 	sts	0x01B0, r24
    266a:	80 91 af 01 	lds	r24, 0x01AF
    266e:	0c c0       	rjmp	.+24     	; 0x2688 <taskReadSensors+0x4e>
    2670:	80 91 af 01 	lds	r24, 0x01AF
    2674:	98 17       	cp	r25, r24
    2676:	51 f4       	brne	.+20     	; 0x268c <taskReadSensors+0x52>
    2678:	0e 94 1b 08 	call	0x1036	; 0x1036 <MADC_u16ADCRead>
    267c:	90 93 ab 01 	sts	0x01AB, r25
    2680:	80 93 aa 01 	sts	0x01AA, r24
    2684:	80 91 b5 01 	lds	r24, 0x01B5
    2688:	80 93 4a 06 	sts	0x064A, r24
    268c:	80 91 4a 06 	lds	r24, 0x064A
    2690:	0e 94 12 08 	call	0x1024	; 0x1024 <MADC_u16ADC_StartConversion_With_Interrupt>
    2694:	8a e0       	ldi	r24, 0x0A	; 10
    2696:	90 e0       	ldi	r25, 0x00	; 0
    2698:	1e dd       	rcall	.-1476   	; 0x20d6 <vTaskDelay>
    269a:	cf cf       	rjmp	.-98     	; 0x263a <taskReadSensors>

0000269c <taskGetPassword>:
    269c:	cf 92       	push	r12
    269e:	df 92       	push	r13
    26a0:	ef 92       	push	r14
    26a2:	ff 92       	push	r15
    26a4:	0f 93       	push	r16
    26a6:	1f 93       	push	r17
    26a8:	df 93       	push	r29
    26aa:	cf 93       	push	r28
    26ac:	00 d0       	rcall	.+0      	; 0x26ae <taskGetPassword+0x12>
    26ae:	00 d0       	rcall	.+0      	; 0x26b0 <taskGetPassword+0x14>
    26b0:	cd b7       	in	r28, 0x3d	; 61
    26b2:	de b7       	in	r29, 0x3e	; 62
    26b4:	19 82       	std	Y+1, r1	; 0x01
    26b6:	1a 82       	std	Y+2, r1	; 0x02
    26b8:	1b 82       	std	Y+3, r1	; 0x03
    26ba:	1c 82       	std	Y+4, r1	; 0x04
    26bc:	10 e0       	ldi	r17, 0x00	; 0
    26be:	7e 01       	movw	r14, r28
    26c0:	08 94       	sec
    26c2:	e1 1c       	adc	r14, r1
    26c4:	f1 1c       	adc	r15, r1
    26c6:	85 e0       	ldi	r24, 0x05	; 5
    26c8:	c8 2e       	mov	r12, r24
    26ca:	d1 2c       	mov	r13, r1
    26cc:	cc 0e       	add	r12, r28
    26ce:	dd 1e       	adc	r13, r29
    26d0:	01 e0       	ldi	r16, 0x01	; 1
    26d2:	0e 94 4b 08 	call	0x1096	; 0x1096 <HKPD_U8GetKeyPressed>
    26d6:	88 23       	and	r24, r24
    26d8:	71 f1       	breq	.+92     	; 0x2736 <taskGetPassword+0x9a>
    26da:	f7 01       	movw	r30, r14
    26dc:	e1 0f       	add	r30, r17
    26de:	f1 1d       	adc	r31, r1
    26e0:	80 83       	st	Z, r24
    26e2:	1f 5f       	subi	r17, 0xFF	; 255
    26e4:	14 30       	cpi	r17, 0x04	; 4
    26e6:	39 f5       	brne	.+78     	; 0x2736 <taskGetPassword+0x9a>
    26e8:	f7 01       	movw	r30, r14
    26ea:	a6 eb       	ldi	r26, 0xB6	; 182
    26ec:	b1 e0       	ldi	r27, 0x01	; 1
    26ee:	90 81       	ld	r25, Z
    26f0:	8c 91       	ld	r24, X
    26f2:	98 17       	cp	r25, r24
    26f4:	31 f4       	brne	.+12     	; 0x2702 <taskGetPassword+0x66>
    26f6:	31 96       	adiw	r30, 0x01	; 1
    26f8:	11 96       	adiw	r26, 0x01	; 1
    26fa:	ec 15       	cp	r30, r12
    26fc:	fd 05       	cpc	r31, r13
    26fe:	b9 f7       	brne	.-18     	; 0x26ee <taskGetPassword+0x52>
    2700:	1e c0       	rjmp	.+60     	; 0x273e <taskGetPassword+0xa2>
    2702:	10 92 bc 01 	sts	0x01BC, r1
    2706:	80 91 ba 01 	lds	r24, 0x01BA
    270a:	81 50       	subi	r24, 0x01	; 1
    270c:	80 93 ba 01 	sts	0x01BA, r24
    2710:	88 23       	and	r24, r24
    2712:	11 f4       	brne	.+4      	; 0x2718 <taskGetPassword+0x7c>
    2714:	00 93 bd 01 	sts	0x01BD, r16
    2718:	49 de       	rcall	.-878    	; 0x23ac <controlDoor>
    271a:	84 e6       	ldi	r24, 0x64	; 100
    271c:	90 e0       	ldi	r25, 0x00	; 0
    271e:	db dc       	rcall	.-1610   	; 0x20d6 <vTaskDelay>
    2720:	80 91 ba 01 	lds	r24, 0x01BA
    2724:	88 23       	and	r24, r24
    2726:	21 f4       	brne	.+8      	; 0x2730 <taskGetPassword+0x94>
    2728:	80 91 bb 01 	lds	r24, 0x01BB
    272c:	80 93 ba 01 	sts	0x01BA, r24
    2730:	10 92 bc 01 	sts	0x01BC, r1
    2734:	10 e0       	ldi	r17, 0x00	; 0
    2736:	84 e1       	ldi	r24, 0x14	; 20
    2738:	90 e0       	ldi	r25, 0x00	; 0
    273a:	cd dc       	rcall	.-1638   	; 0x20d6 <vTaskDelay>
    273c:	ca cf       	rjmp	.-108    	; 0x26d2 <taskGetPassword+0x36>
    273e:	00 93 bc 01 	sts	0x01BC, r16
    2742:	00 93 be 01 	sts	0x01BE, r16
    2746:	e8 cf       	rjmp	.-48     	; 0x2718 <taskGetPassword+0x7c>

00002748 <main>:
    2748:	af 92       	push	r10
    274a:	bf 92       	push	r11
    274c:	cf 92       	push	r12
    274e:	df 92       	push	r13
    2750:	ef 92       	push	r14
    2752:	ff 92       	push	r15
    2754:	0f 93       	push	r16
    2756:	80 91 b5 01 	lds	r24, 0x01B5
    275a:	80 93 4a 06 	sts	0x064A, r24
    275e:	d3 de       	rcall	.-602    	; 0x2506 <System_Init>
    2760:	81 e0       	ldi	r24, 0x01	; 1
    2762:	60 e0       	ldi	r22, 0x00	; 0
    2764:	7a da       	rcall	.-2828   	; 0x1c5a <xQueueCreateCountingSemaphore>
    2766:	90 93 52 06 	sts	0x0652, r25
    276a:	80 93 51 06 	sts	0x0651, r24
    276e:	8d e1       	ldi	r24, 0x1D	; 29
    2770:	93 e1       	ldi	r25, 0x13	; 19
    2772:	60 e0       	ldi	r22, 0x00	; 0
    2774:	70 e0       	ldi	r23, 0x00	; 0
    2776:	44 e6       	ldi	r20, 0x64	; 100
    2778:	50 e0       	ldi	r21, 0x00	; 0
    277a:	20 e0       	ldi	r18, 0x00	; 0
    277c:	30 e0       	ldi	r19, 0x00	; 0
    277e:	08 e0       	ldi	r16, 0x08	; 8
    2780:	ee 24       	eor	r14, r14
    2782:	ff 24       	eor	r15, r15
    2784:	cc 24       	eor	r12, r12
    2786:	dd 24       	eor	r13, r13
    2788:	aa 24       	eor	r10, r10
    278a:	bb 24       	eor	r11, r11
    278c:	f6 dc       	rcall	.-1556   	; 0x217a <xTaskGenericCreate>
    278e:	82 ef       	ldi	r24, 0xF2	; 242
    2790:	92 e1       	ldi	r25, 0x12	; 18
    2792:	60 e0       	ldi	r22, 0x00	; 0
    2794:	70 e0       	ldi	r23, 0x00	; 0
    2796:	48 e7       	ldi	r20, 0x78	; 120
    2798:	50 e0       	ldi	r21, 0x00	; 0
    279a:	20 e0       	ldi	r18, 0x00	; 0
    279c:	30 e0       	ldi	r19, 0x00	; 0
    279e:	04 e0       	ldi	r16, 0x04	; 4
    27a0:	ec dc       	rcall	.-1576   	; 0x217a <xTaskGenericCreate>
    27a2:	84 ec       	ldi	r24, 0xC4	; 196
    27a4:	92 e1       	ldi	r25, 0x12	; 18
    27a6:	60 e0       	ldi	r22, 0x00	; 0
    27a8:	70 e0       	ldi	r23, 0x00	; 0
    27aa:	44 e6       	ldi	r20, 0x64	; 100
    27ac:	50 e0       	ldi	r21, 0x00	; 0
    27ae:	20 e0       	ldi	r18, 0x00	; 0
    27b0:	30 e0       	ldi	r19, 0x00	; 0
    27b2:	02 e0       	ldi	r16, 0x02	; 2
    27b4:	e2 dc       	rcall	.-1596   	; 0x217a <xTaskGenericCreate>
    27b6:	8b e7       	ldi	r24, 0x7B	; 123
    27b8:	92 e1       	ldi	r25, 0x12	; 18
    27ba:	60 e0       	ldi	r22, 0x00	; 0
    27bc:	70 e0       	ldi	r23, 0x00	; 0
    27be:	44 e6       	ldi	r20, 0x64	; 100
    27c0:	50 e0       	ldi	r21, 0x00	; 0
    27c2:	20 e0       	ldi	r18, 0x00	; 0
    27c4:	30 e0       	ldi	r19, 0x00	; 0
    27c6:	07 e0       	ldi	r16, 0x07	; 7
    27c8:	d8 dc       	rcall	.-1616   	; 0x217a <xTaskGenericCreate>
    27ca:	8e e4       	ldi	r24, 0x4E	; 78
    27cc:	93 e1       	ldi	r25, 0x13	; 19
    27ce:	60 e0       	ldi	r22, 0x00	; 0
    27d0:	70 e0       	ldi	r23, 0x00	; 0
    27d2:	44 e6       	ldi	r20, 0x64	; 100
    27d4:	50 e0       	ldi	r21, 0x00	; 0
    27d6:	20 e0       	ldi	r18, 0x00	; 0
    27d8:	30 e0       	ldi	r19, 0x00	; 0
    27da:	03 e0       	ldi	r16, 0x03	; 3
    27dc:	ce dc       	rcall	.-1636   	; 0x217a <xTaskGenericCreate>
    27de:	bd dd       	rcall	.-1158   	; 0x235a <vTaskStartScheduler>
    27e0:	ff cf       	rjmp	.-2      	; 0x27e0 <main+0x98>

000027e2 <__mulsi3>:
    27e2:	62 9f       	mul	r22, r18
    27e4:	d0 01       	movw	r26, r0
    27e6:	73 9f       	mul	r23, r19
    27e8:	f0 01       	movw	r30, r0
    27ea:	82 9f       	mul	r24, r18
    27ec:	e0 0d       	add	r30, r0
    27ee:	f1 1d       	adc	r31, r1
    27f0:	64 9f       	mul	r22, r20
    27f2:	e0 0d       	add	r30, r0
    27f4:	f1 1d       	adc	r31, r1
    27f6:	92 9f       	mul	r25, r18
    27f8:	f0 0d       	add	r31, r0
    27fa:	83 9f       	mul	r24, r19
    27fc:	f0 0d       	add	r31, r0
    27fe:	74 9f       	mul	r23, r20
    2800:	f0 0d       	add	r31, r0
    2802:	65 9f       	mul	r22, r21
    2804:	f0 0d       	add	r31, r0
    2806:	99 27       	eor	r25, r25
    2808:	72 9f       	mul	r23, r18
    280a:	b0 0d       	add	r27, r0
    280c:	e1 1d       	adc	r30, r1
    280e:	f9 1f       	adc	r31, r25
    2810:	63 9f       	mul	r22, r19
    2812:	b0 0d       	add	r27, r0
    2814:	e1 1d       	adc	r30, r1
    2816:	f9 1f       	adc	r31, r25
    2818:	bd 01       	movw	r22, r26
    281a:	cf 01       	movw	r24, r30
    281c:	11 24       	eor	r1, r1
    281e:	08 95       	ret

00002820 <__udivmodsi4>:
    2820:	a1 e2       	ldi	r26, 0x21	; 33
    2822:	1a 2e       	mov	r1, r26
    2824:	aa 1b       	sub	r26, r26
    2826:	bb 1b       	sub	r27, r27
    2828:	fd 01       	movw	r30, r26
    282a:	0d c0       	rjmp	.+26     	; 0x2846 <__udivmodsi4_ep>

0000282c <__udivmodsi4_loop>:
    282c:	aa 1f       	adc	r26, r26
    282e:	bb 1f       	adc	r27, r27
    2830:	ee 1f       	adc	r30, r30
    2832:	ff 1f       	adc	r31, r31
    2834:	a2 17       	cp	r26, r18
    2836:	b3 07       	cpc	r27, r19
    2838:	e4 07       	cpc	r30, r20
    283a:	f5 07       	cpc	r31, r21
    283c:	20 f0       	brcs	.+8      	; 0x2846 <__udivmodsi4_ep>
    283e:	a2 1b       	sub	r26, r18
    2840:	b3 0b       	sbc	r27, r19
    2842:	e4 0b       	sbc	r30, r20
    2844:	f5 0b       	sbc	r31, r21

00002846 <__udivmodsi4_ep>:
    2846:	66 1f       	adc	r22, r22
    2848:	77 1f       	adc	r23, r23
    284a:	88 1f       	adc	r24, r24
    284c:	99 1f       	adc	r25, r25
    284e:	1a 94       	dec	r1
    2850:	69 f7       	brne	.-38     	; 0x282c <__udivmodsi4_loop>
    2852:	60 95       	com	r22
    2854:	70 95       	com	r23
    2856:	80 95       	com	r24
    2858:	90 95       	com	r25
    285a:	9b 01       	movw	r18, r22
    285c:	ac 01       	movw	r20, r24
    285e:	bd 01       	movw	r22, r26
    2860:	cf 01       	movw	r24, r30
    2862:	08 95       	ret

00002864 <__prologue_saves__>:
    2864:	2f 92       	push	r2
    2866:	3f 92       	push	r3
    2868:	4f 92       	push	r4
    286a:	5f 92       	push	r5
    286c:	6f 92       	push	r6
    286e:	7f 92       	push	r7
    2870:	8f 92       	push	r8
    2872:	9f 92       	push	r9
    2874:	af 92       	push	r10
    2876:	bf 92       	push	r11
    2878:	cf 92       	push	r12
    287a:	df 92       	push	r13
    287c:	ef 92       	push	r14
    287e:	ff 92       	push	r15
    2880:	0f 93       	push	r16
    2882:	1f 93       	push	r17
    2884:	cf 93       	push	r28
    2886:	df 93       	push	r29
    2888:	cd b7       	in	r28, 0x3d	; 61
    288a:	de b7       	in	r29, 0x3e	; 62
    288c:	ca 1b       	sub	r28, r26
    288e:	db 0b       	sbc	r29, r27
    2890:	0f b6       	in	r0, 0x3f	; 63
    2892:	f8 94       	cli
    2894:	de bf       	out	0x3e, r29	; 62
    2896:	0f be       	out	0x3f, r0	; 63
    2898:	cd bf       	out	0x3d, r28	; 61
    289a:	09 94       	ijmp

0000289c <__epilogue_restores__>:
    289c:	2a 88       	ldd	r2, Y+18	; 0x12
    289e:	39 88       	ldd	r3, Y+17	; 0x11
    28a0:	48 88       	ldd	r4, Y+16	; 0x10
    28a2:	5f 84       	ldd	r5, Y+15	; 0x0f
    28a4:	6e 84       	ldd	r6, Y+14	; 0x0e
    28a6:	7d 84       	ldd	r7, Y+13	; 0x0d
    28a8:	8c 84       	ldd	r8, Y+12	; 0x0c
    28aa:	9b 84       	ldd	r9, Y+11	; 0x0b
    28ac:	aa 84       	ldd	r10, Y+10	; 0x0a
    28ae:	b9 84       	ldd	r11, Y+9	; 0x09
    28b0:	c8 84       	ldd	r12, Y+8	; 0x08
    28b2:	df 80       	ldd	r13, Y+7	; 0x07
    28b4:	ee 80       	ldd	r14, Y+6	; 0x06
    28b6:	fd 80       	ldd	r15, Y+5	; 0x05
    28b8:	0c 81       	ldd	r16, Y+4	; 0x04
    28ba:	1b 81       	ldd	r17, Y+3	; 0x03
    28bc:	aa 81       	ldd	r26, Y+2	; 0x02
    28be:	b9 81       	ldd	r27, Y+1	; 0x01
    28c0:	ce 0f       	add	r28, r30
    28c2:	d1 1d       	adc	r29, r1
    28c4:	0f b6       	in	r0, 0x3f	; 63
    28c6:	f8 94       	cli
    28c8:	de bf       	out	0x3e, r29	; 62
    28ca:	0f be       	out	0x3f, r0	; 63
    28cc:	cd bf       	out	0x3d, r28	; 61
    28ce:	ed 01       	movw	r28, r26
    28d0:	08 95       	ret

000028d2 <round>:
    28d2:	50 d0       	rcall	.+160    	; 0x2974 <__fp_splitA>
    28d4:	e0 f0       	brcs	.+56     	; 0x290e <round+0x3c>
    28d6:	9e 37       	cpi	r25, 0x7E	; 126
    28d8:	d8 f0       	brcs	.+54     	; 0x2910 <round+0x3e>
    28da:	96 39       	cpi	r25, 0x96	; 150
    28dc:	b8 f4       	brcc	.+46     	; 0x290c <round+0x3a>
    28de:	9e 38       	cpi	r25, 0x8E	; 142
    28e0:	48 f4       	brcc	.+18     	; 0x28f4 <round+0x22>
    28e2:	67 2f       	mov	r22, r23
    28e4:	78 2f       	mov	r23, r24
    28e6:	88 27       	eor	r24, r24
    28e8:	98 5f       	subi	r25, 0xF8	; 248
    28ea:	f9 cf       	rjmp	.-14     	; 0x28de <round+0xc>
    28ec:	86 95       	lsr	r24
    28ee:	77 95       	ror	r23
    28f0:	67 95       	ror	r22
    28f2:	93 95       	inc	r25
    28f4:	95 39       	cpi	r25, 0x95	; 149
    28f6:	d0 f3       	brcs	.-12     	; 0x28ec <round+0x1a>
    28f8:	b6 2f       	mov	r27, r22
    28fa:	b1 70       	andi	r27, 0x01	; 1
    28fc:	6b 0f       	add	r22, r27
    28fe:	71 1d       	adc	r23, r1
    2900:	81 1d       	adc	r24, r1
    2902:	20 f4       	brcc	.+8      	; 0x290c <round+0x3a>
    2904:	87 95       	ror	r24
    2906:	77 95       	ror	r23
    2908:	67 95       	ror	r22
    290a:	93 95       	inc	r25
    290c:	02 c0       	rjmp	.+4      	; 0x2912 <__fp_mintl>
    290e:	1c c0       	rjmp	.+56     	; 0x2948 <__fp_mpack>
    2910:	4c c0       	rjmp	.+152    	; 0x29aa <__fp_szero>

00002912 <__fp_mintl>:
    2912:	88 23       	and	r24, r24
    2914:	71 f4       	brne	.+28     	; 0x2932 <__fp_mintl+0x20>
    2916:	77 23       	and	r23, r23
    2918:	21 f0       	breq	.+8      	; 0x2922 <__fp_mintl+0x10>
    291a:	98 50       	subi	r25, 0x08	; 8
    291c:	87 2b       	or	r24, r23
    291e:	76 2f       	mov	r23, r22
    2920:	07 c0       	rjmp	.+14     	; 0x2930 <__fp_mintl+0x1e>
    2922:	66 23       	and	r22, r22
    2924:	11 f4       	brne	.+4      	; 0x292a <__fp_mintl+0x18>
    2926:	99 27       	eor	r25, r25
    2928:	0d c0       	rjmp	.+26     	; 0x2944 <__fp_mintl+0x32>
    292a:	90 51       	subi	r25, 0x10	; 16
    292c:	86 2b       	or	r24, r22
    292e:	70 e0       	ldi	r23, 0x00	; 0
    2930:	60 e0       	ldi	r22, 0x00	; 0
    2932:	2a f0       	brmi	.+10     	; 0x293e <__fp_mintl+0x2c>
    2934:	9a 95       	dec	r25
    2936:	66 0f       	add	r22, r22
    2938:	77 1f       	adc	r23, r23
    293a:	88 1f       	adc	r24, r24
    293c:	da f7       	brpl	.-10     	; 0x2934 <__fp_mintl+0x22>
    293e:	88 0f       	add	r24, r24
    2940:	96 95       	lsr	r25
    2942:	87 95       	ror	r24
    2944:	97 f9       	bld	r25, 7
    2946:	08 95       	ret

00002948 <__fp_mpack>:
    2948:	9f 3f       	cpi	r25, 0xFF	; 255
    294a:	31 f0       	breq	.+12     	; 0x2958 <__fp_mpack_finite+0xc>

0000294c <__fp_mpack_finite>:
    294c:	91 50       	subi	r25, 0x01	; 1
    294e:	20 f4       	brcc	.+8      	; 0x2958 <__fp_mpack_finite+0xc>
    2950:	87 95       	ror	r24
    2952:	77 95       	ror	r23
    2954:	67 95       	ror	r22
    2956:	b7 95       	ror	r27
    2958:	88 0f       	add	r24, r24
    295a:	91 1d       	adc	r25, r1
    295c:	96 95       	lsr	r25
    295e:	87 95       	ror	r24
    2960:	97 f9       	bld	r25, 7
    2962:	08 95       	ret

00002964 <__fp_split3>:
    2964:	57 fd       	sbrc	r21, 7
    2966:	90 58       	subi	r25, 0x80	; 128
    2968:	44 0f       	add	r20, r20
    296a:	55 1f       	adc	r21, r21
    296c:	59 f0       	breq	.+22     	; 0x2984 <__fp_splitA+0x10>
    296e:	5f 3f       	cpi	r21, 0xFF	; 255
    2970:	71 f0       	breq	.+28     	; 0x298e <__fp_splitA+0x1a>
    2972:	47 95       	ror	r20

00002974 <__fp_splitA>:
    2974:	88 0f       	add	r24, r24
    2976:	97 fb       	bst	r25, 7
    2978:	99 1f       	adc	r25, r25
    297a:	61 f0       	breq	.+24     	; 0x2994 <__fp_splitA+0x20>
    297c:	9f 3f       	cpi	r25, 0xFF	; 255
    297e:	79 f0       	breq	.+30     	; 0x299e <__fp_splitA+0x2a>
    2980:	87 95       	ror	r24
    2982:	08 95       	ret
    2984:	12 16       	cp	r1, r18
    2986:	13 06       	cpc	r1, r19
    2988:	14 06       	cpc	r1, r20
    298a:	55 1f       	adc	r21, r21
    298c:	f2 cf       	rjmp	.-28     	; 0x2972 <__fp_split3+0xe>
    298e:	46 95       	lsr	r20
    2990:	f1 df       	rcall	.-30     	; 0x2974 <__fp_splitA>
    2992:	08 c0       	rjmp	.+16     	; 0x29a4 <__fp_splitA+0x30>
    2994:	16 16       	cp	r1, r22
    2996:	17 06       	cpc	r1, r23
    2998:	18 06       	cpc	r1, r24
    299a:	99 1f       	adc	r25, r25
    299c:	f1 cf       	rjmp	.-30     	; 0x2980 <__fp_splitA+0xc>
    299e:	86 95       	lsr	r24
    29a0:	71 05       	cpc	r23, r1
    29a2:	61 05       	cpc	r22, r1
    29a4:	08 94       	sec
    29a6:	08 95       	ret

000029a8 <__fp_zero>:
    29a8:	e8 94       	clt

000029aa <__fp_szero>:
    29aa:	bb 27       	eor	r27, r27
    29ac:	66 27       	eor	r22, r22
    29ae:	77 27       	eor	r23, r23
    29b0:	cb 01       	movw	r24, r22
    29b2:	97 f9       	bld	r25, 7
    29b4:	08 95       	ret

000029b6 <memcpy>:
    29b6:	fb 01       	movw	r30, r22
    29b8:	dc 01       	movw	r26, r24
    29ba:	02 c0       	rjmp	.+4      	; 0x29c0 <memcpy+0xa>
    29bc:	01 90       	ld	r0, Z+
    29be:	0d 92       	st	X+, r0
    29c0:	41 50       	subi	r20, 0x01	; 1
    29c2:	50 40       	sbci	r21, 0x00	; 0
    29c4:	d8 f7       	brcc	.-10     	; 0x29bc <memcpy+0x6>
    29c6:	08 95       	ret

000029c8 <memset>:
    29c8:	dc 01       	movw	r26, r24
    29ca:	01 c0       	rjmp	.+2      	; 0x29ce <memset+0x6>
    29cc:	6d 93       	st	X+, r22
    29ce:	41 50       	subi	r20, 0x01	; 1
    29d0:	50 40       	sbci	r21, 0x00	; 0
    29d2:	e0 f7       	brcc	.-8      	; 0x29cc <memset+0x4>
    29d4:	08 95       	ret

000029d6 <strncpy>:
    29d6:	fb 01       	movw	r30, r22
    29d8:	dc 01       	movw	r26, r24
    29da:	41 50       	subi	r20, 0x01	; 1
    29dc:	50 40       	sbci	r21, 0x00	; 0
    29de:	48 f0       	brcs	.+18     	; 0x29f2 <strncpy+0x1c>
    29e0:	01 90       	ld	r0, Z+
    29e2:	0d 92       	st	X+, r0
    29e4:	00 20       	and	r0, r0
    29e6:	c9 f7       	brne	.-14     	; 0x29da <strncpy+0x4>
    29e8:	01 c0       	rjmp	.+2      	; 0x29ec <strncpy+0x16>
    29ea:	1d 92       	st	X+, r1
    29ec:	41 50       	subi	r20, 0x01	; 1
    29ee:	50 40       	sbci	r21, 0x00	; 0
    29f0:	e0 f7       	brcc	.-8      	; 0x29ea <strncpy+0x14>
    29f2:	08 95       	ret

000029f4 <_exit>:
    29f4:	f8 94       	cli

000029f6 <__stop_program>:
    29f6:	ff cf       	rjmp	.-2      	; 0x29f6 <__stop_program>
